Archive member included because of file (symbol)

c:/program files/microchip/xc32/v2.50/bin/bin/../../lib/gcc/pic32mx/4.8.3/fpu64\libgcc.a(_udivdi3.o)
                              build/default/production/_ext/101884895/sys_time.o (__udivdi3)
c:/program files/microchip/xc32/v2.50/bin/bin/../../lib/gcc/pic32mx/4.8.3/../../../../pic32mx/lib/fpu64\libpic32.a(memcmp.o)
                              build/default/production/_ext/1100529066/drv_sdspi.o (memcmp)
c:/program files/microchip/xc32/v2.50/bin/bin/../../lib/gcc/pic32mx/4.8.3/../../../../pic32mx/lib/fpu64\libpic32.a(memcpy.o)
                              build/default/production/_ext/1100529066/drv_sdspi.o (memcpy)
c:/program files/microchip/xc32/v2.50/bin/bin/../../lib/gcc/pic32mx/4.8.3/../../../../pic32mx/lib/fpu64\libpic32.a(memset.o)
                              build/default/production/_ext/2070931557/drv_spi.o (memset)
c:/program files/microchip/xc32/v2.50/bin/bin/../../lib/gcc/pic32mx/4.8.3/../../../../pic32mx/lib/fpu64\libpic32.a(strcmp.o)
                              build/default/production/_ext/1269487135/sys_fs_media_manager.o (strcmp)
c:/program files/microchip/xc32/v2.50/bin/bin/../../lib/gcc/pic32mx/4.8.3/../../../../pic32mx/lib/fpu64\libpic32.a(strcpy.o)
                              build/default/production/_ext/1269487135/sys_fs.o (strcpy)
c:/program files/microchip/xc32/v2.50/bin/bin/../../lib/gcc/pic32mx/4.8.3/../../../../pic32mx/lib/fpu64\libpic32.a(strlen.o)
                              build/default/production/_ext/1269487135/sys_fs_media_manager.o (strlen)
c:/program files/microchip/xc32/v2.50/bin/bin/../../lib/gcc/pic32mx/4.8.3/../../../../pic32mx/lib/fpu64\libpic32.a(default-on-reset.o)
                              C:\Users\asus3\AppData\Local\Temp\ccX7AMLn.o (_on_reset)
c:/program files/microchip/xc32/v2.50/bin/bin/../../lib/gcc/pic32mx/4.8.3/../../../../pic32mx/lib/fpu64\libpic32.a(default-on-bootstrap.o)
                              C:\Users\asus3\AppData\Local\Temp\ccX7AMLn.o (_on_bootstrap)
c:/program files/microchip/xc32/v2.50/bin/bin/../../lib/gcc/pic32mx/4.8.3/../../../../pic32mx/lib/fpu64\libpic32.a(default-nmi-handler.o)
                              C:\Users\asus3\AppData\Local\Temp\ccX7AMLn.o (_nmi_handler)
c:/program files/microchip/xc32/v2.50/bin/bin/../../lib/gcc/pic32mx/4.8.3/../../../../pic32mx/lib/fpu64\libpic32.a(pic32_data_init.o)
                              C:\Users\asus3\AppData\Local\Temp\ccX7AMLn.o (__pic32_data_init)
c:/program files/microchip/xc32/v2.50/bin/bin/../../lib/gcc/pic32mx/4.8.3/../../../../pic32mx/lib/fpu64\libpic32.a(pic32_init_cache.o)
                              C:\Users\asus3\AppData\Local\Temp\ccX7AMLn.o (__pic32_init_cache)
c:/program files/microchip/xc32/v2.50/bin/bin/../../lib/gcc/pic32mx/4.8.3/../../../../pic32mx/lib/fpu64\libpic32.a(pic32_init_tlb_ebi_sqi.o)
                              C:\Users\asus3\AppData\Local\Temp\ccX7AMLn.o (__pic32_tlb_init_ebi_sqi)
c:/program files/microchip/xc32/v2.50/bin/bin/../../lib/gcc/pic32mx/4.8.3/../../../../pic32mx/lib/fpu64\libpic32.a(general-exception.o)
                              C:\Users\asus3\AppData\Local\Temp\ccX7AMLn.o (_general_exception_context)
c:/program files/microchip/xc32/v2.50/bin/bin/../../lib/gcc/pic32mx/4.8.3/../../../../pic32mx/lib/fpu64\libpic32.a(cache-err-exception.o)
                              C:\Users\asus3\AppData\Local\Temp\ccX7AMLn.o (_cache_err_exception_context)
c:/program files/microchip/xc32/v2.50/bin/bin/../../lib/gcc/pic32mx/4.8.3/../../../../pic32mx/lib/fpu64\libpic32.a(simple-tlb-refill-exception.o)
                              C:\Users\asus3\AppData\Local\Temp\ccX7AMLn.o (_simple_tlb_refill_exception_context)
c:/program files/microchip/xc32/v2.50/bin/bin/../../lib/gcc/pic32mx/4.8.3/../../../../pic32mx/lib/fpu64\libpic32.a(defaultinterrupt.o)
                              C:\Users\asus3\AppData\Local\Temp\ccDVWfLL.o (_DefaultInterrupt)
c:/program files/microchip/xc32/v2.50/bin/bin/../../lib/gcc/pic32mx/4.8.3/../../../../pic32mx/lib/fpu64\liblega-c.a(strncmp.o)
                              build/default/production/_ext/1269487135/sys_fs_media_manager.o (strncmp)
c:/program files/microchip/xc32/v2.50/bin/bin/../../lib/gcc/pic32mx/4.8.3/../../../../pic32mx/lib/fpu64\liblega-c.a(strchr.o)
                              build/default/production/_ext/411819097/ff.o (strchr)
c:/program files/microchip/xc32/v2.50/bin/bin/../../lib/gcc/pic32mx/4.8.3/../../../../pic32mx/lib/fpu64\liblega-c.a(memmove.o)
                              build/default/production/_ext/565198302/diskio.o (memmove)

Allocating common symbols
Common symbol       size              file

appData             0x30              build/default/production/_ext/1360937237/app_freertos.o
xAPP_FREERTOS_Tasks
                    0x4               build/default/production/_ext/1171490990/tasks.o
sysObj              0x14              build/default/production/_ext/1171490990/initialization.o
gDrvUSBObj          0x134             build/default/production/_ext/2071311437/drv_usbhs.o
USBDeviceTask_EventQueue_Handle
                    0x4               build/default/production/_ext/1360937237/app_freertos.o
VolToPart           0x2               build/default/production/_ext/1269487135/sys_fs_media_manager.o

Microchip PIC32 Memory-Usage Report

kseg0 Program-Memory Usage
section                    address  length [bytes]      (dec)  Description
-------                 ----------  -------------------------  -----------
.simple_tlb_refill_excp 0x9d000000           0x10          16   
.text.f_readdir         0x9d000010           0xf0         240   
.cache_err_excpt        0x9d000100           0x10          16   
.text.PLIB_USBHS_DMAOpe 0x9d000110           0x70         112   
.app_excpt              0x9d000180           0x10          16  General-Exception 
.text.F_DRV_USBHS_DEVIC 0x9d000190           0x70         112   
.vectors                0x9d000200         0x2304        8964   
.text.f_mkfs            0x9d002504         0x1268        4712   
.text.F_DRV_USBHS_DEVIC 0x9d00376c         0x10c8        4296   
.text.DRV_USBHS_DEVICE_ 0x9d004834          0x8f4        2292   
.text.create_name       0x9d005128          0x860        2144   
.dinit                  0x9d005988          0x840        2112   
.text.f_printf          0x9d0061c8          0x7f4        2036   
.text.mount_volume      0x9d0069bc          0x7c8        1992   
.text                   0x9d007184          0x6bc        1724  App's exec code 
.text.f_open            0x9d007840          0x628        1576   
.text.f_write           0x9d007e68          0x5a8        1448   
.text.SYS_FS_MEDIA_MANA 0x9d008410          0x56c        1388   
.text.SYS_FS_MEDIA_MANA 0x9d00897c          0x51c        1308   
.text.SPI4_WriteRead    0x9d008e98          0x518        1304   
.text.f_lseek           0x9d0093b0          0x4ec        1260   
.text.f_read            0x9d00989c          0x4e0        1248   
.text.SYS_FS_Mount      0x9d009d7c          0x4c4        1220   
.text.DRV_USBHS_Tasks   0x9d00a240          0x49c        1180   
.text.create_partition  0x9d00a6dc          0x494        1172   
.text.DRV_USBHS_DEVICE_ 0x9d00ab70          0x470        1136   
.text.SPI4_RX_Interrupt 0x9d00afe0          0x46c        1132   
.text.DRV_USBHS_DEVICE_ 0x9d00b44c          0x468        1128   
.text.get_fileinfo      0x9d00b8b4          0x45c        1116   
.text                   0x9d00bd10          0x458        1112  App's exec code 
.text.F_DRV_USBHS_Proce 0x9d00c168          0x450        1104   
.text.lDRV_SDSPI_Comman 0x9d00c5b8          0x444        1092   
.text.DRV_SPI_WriteRead 0x9d00c9fc          0x420        1056   
.text.SYS_FS_MEDIA_T_MA 0x9d00ce1c          0x414        1044   
.text.lDRV_SDSPI_SetupX 0x9d00d230          0x408        1032   
.text.lDRV_SPI_StartDMA 0x9d00d638          0x400        1024   
.text.F_DRV_USBHS_DEVIC 0x9d00da38          0x3f0        1008   
.text                   0x9d00de28          0x3ec        1004  App's exec code 
.text.F_USB_DEVICE_Proc 0x9d00e214          0x3dc         988   
.text.f_rename          0x9d00e5f0          0x3b8         952   
.text.F_USB_DEVICE_Proc 0x9d00e9a8          0x3ac         940   
.text.dir_register      0x9d00ed54          0x3a4         932   
.text.xTaskIncrementTic 0x9d00f0f8          0x3a4         932   
.text.xQueueGenericSend 0x9d00f49c          0x3a0         928   
.text.create_chain      0x9d00f83c          0x39c         924   
.text.USBDevice_Task    0x9d00fbd8          0x394         916   
.text.USB_DEVICE_CDC_Wr 0x9d00ff6c          0x390         912   
.text.xQueueSemaphoreTa 0x9d0102fc          0x38c         908   
.text.F_USB_DEVICE_Even 0x9d010688          0x388         904   
.text.DRV_USBHS_DEVICE_ 0x9d010a10          0x370         880   
.text.put_fat           0x9d010d80          0x36c         876   
.text.f_setlabel        0x9d0110ec          0x36c         876   
.text.SD_Task           0x9d011458          0x364         868   
.text.f_getcwd          0x9d0117bc          0x35c         860   
.text.F_USB_DEVICE_Cont 0x9d011b18          0x350         848   
.text.xTaskResumeAll    0x9d011e68          0x350         848   
.text.SYS_FS_MEDIA_T_MA 0x9d0121b8          0x340         832   
.text.SYS_FS_FileOpen   0x9d0124f8          0x33c         828   
.text.F_USB_DEVICE_Othe 0x9d012834          0x338         824   
.text.lDRV_SDSPI_MediaI 0x9d012b6c          0x324         804   
.text.lDRV_SDSPI_Attach 0x9d012e90          0x324         804   
.text.FATFS_unmount     0x9d0131b4          0x324         804   
.text.xQueueReceive     0x9d0134d8          0x320         800   
.text.DRV_USBHS_DEVICE_ 0x9d0137f8          0x318         792   
.text.DRV_SPI_Initializ 0x9d013b10          0x30c         780   
.text.DRV_USBHS_DEVICE_ 0x9d013e1c          0x308         776   
.text.SYS_DMA_ChannelTr 0x9d014124          0x308         776   
.text.USB_DEVICE_CDC_Re 0x9d01442c          0x308         776   
.text.xTaskRemoveFromEv 0x9d014734          0x308         776   
.text.f_mkdir           0x9d014a3c          0x2ec         748   
.text.dir_find          0x9d014d28          0x2e0         736   
.text.APP_USBDeviceCDCE 0x9d015008          0x2e0         736   
.text.DRV_SPI_Open      0x9d0152e8          0x2d8         728   
.text.F_USB_DEVICE_Ep0R 0x9d0155c0          0x2d8         728   
.text.DRV_USBHS_DEVICE_ 0x9d015898          0x2d4         724   
.text.f_getfree         0x9d015b6c          0x2c8         712   
.text.F_USB_DEVICE_CDC_ 0x9d015e34          0x2c8         712   
.text.lDRV_SPI_RX_DMA_C 0x9d0160fc          0x2c4         708   
.text.disk_write        0x9d0163c0          0x2bc         700   
.text.USB_DEVICE_Initia 0x9d01667c          0x2bc         700   
.text.DRV_SDSPI_Open    0x9d016938          0x2ac         684   
.text.SYS_TIME_HwTimerC 0x9d016be4          0x2ac         684   
.text.disk_read         0x9d016e90          0x2a0         672   
.text.SYS_FS_Unmount    0x9d017130          0x2a0         672   
.text.SYS_FS_GetDisk    0x9d0173d0          0x29c         668   
.text.SYS_FS_Initialize 0x9d01766c          0x298         664   
.text.dir_read          0x9d017904          0x294         660   
.text.gen_numname       0x9d017b98          0x28c         652   
.text.vTaskPriorityDisi 0x9d017e24          0x28c         652   
.text.DMAC_ChannelSetAd 0x9d0180b0          0x28c         652   
.text.SYS_TIME_CounterI 0x9d01833c          0x284         644   
.text.dir_next          0x9d0185c0          0x280         640   
.text.pvPortMalloc      0x9d018840          0x280         640   
.text.APP_USBDeviceEven 0x9d018ac0          0x280         640   
.text.get_fat           0x9d018d40          0x27c         636   
.text.DRV_SDSPI_Initial 0x9d018fbc          0x268         616   
.text.F_USB_DEVICE_CDC_ 0x9d019224          0x268         616   
.text.f_truncate        0x9d01948c          0x264         612   
.text.check_fs          0x9d0196f0          0x260         608   
.text.ff_wtoupper       0x9d019950          0x25c         604   
.text.FATFS_open        0x9d019bac          0x254         596   
.text.f_unlink          0x9d019e00          0x250         592   
.text.follow_path       0x9d01a050          0x24c         588   
.text.xTaskPriorityInhe 0x9d01a29c          0x24c         588   
.text.F_DRV_USBHS_DEVIC 0x9d01a4e8          0x248         584   
.text.USB_DEVICE_Tasks  0x9d01a730          0x248         584   
.text.inc_share         0x9d01a978          0x240         576   
.text.f_getlabel        0x9d01abb8          0x23c         572   
.text.FATFS_mount       0x9d01adf4          0x238         568   
.text.xQueueGenericSend 0x9d01b02c          0x238         568   
.text.xTaskPriorityDisi 0x9d01b264          0x230         560   
.text.DRV_USBHS_Initial 0x9d01b494          0x228         552   
.text.dir_sdi           0x9d01b6bc          0x220         544   
.text.DMAC_ChannelTrans 0x9d01b8dc          0x21c         540   
.text.SYS_TIME_AddToLis 0x9d01baf8          0x210         528   
.text.prvInitialiseNewT 0x9d01bd08          0x20c         524   
.text.xQueueGenericRese 0x9d01bf14          0x200         512   
.text.SPI4_TX_Interrupt 0x9d01c114          0x1fc         508   
.text.prvAddNewTaskToRe 0x9d01c310          0x1f8         504   
.rodata.cvt1.30278.cvt1 0x9d01c508          0x1f4         500   
.text.xQueueGiveFromISR 0x9d01c6fc          0x1f0         496   
.text.SYS_FS_MEDIA_T_MA 0x9d01c8ec          0x1ec         492   
.text.f_sync            0x9d01cad8          0x1e8         488   
.text.F_USB_DEVICE_Proc 0x9d01ccc0          0x1e4         484   
.text.lDRV_SDSPI_Write  0x9d01cea4          0x1d4         468   
.text.cmp_lfn           0x9d01d078          0x1c8         456   
.text.prvCopyDataToQueu 0x9d01d240          0x1c8         456   
.text.DRV_USBHS_Open    0x9d01d408          0x1c4         452   
.text.f_opendir         0x9d01d5cc          0x1c4         452   
.text.F_USB_DEVICE_CDC_ 0x9d01d790          0x1c0         448   
.text.SYS_FS_CurrentDri 0x9d01d950          0x1bc         444   
.text.SYS_TIME_TimerObj 0x9d01db0c          0x1bc         444   
.text.F_USB_DEVICE_GetS 0x9d01dcc8          0x1bc         444   
.text.USBHS_DeviceRxEnd 0x9d01de84          0x1b4         436   
.text.remove_chain      0x9d01e038          0x1b4         436   
.text.lDRV_SDSPI_Proces 0x9d01e1ec          0x1b0         432   
.text.find_volume       0x9d01e39c          0x1ac         428   
.text.pick_lfn          0x9d01e548          0x1a4         420   
.text.lDRV_SDSPI_ReadRe 0x9d01e6ec          0x1a0         416   
.text.lDRV_SDSPI_Read   0x9d01e88c          0x1a0         416   
.text.DRV_SPI_Exclusive 0x9d01ea2c          0x1a0         416   
.text.SYS_FS_MEDIA_MANA 0x9d01ebcc          0x198         408   
.text.vTaskSwitchContex 0x9d01ed64          0x198         408   
.text.prvAddCurrentTask 0x9d01eefc          0x198         408   
.text.sync_fs           0x9d01f094          0x194         404   
.text.SYS_FS_MEDIA_MANA 0x9d01f228          0x194         404   
.text.SYS_FS_FileWrite  0x9d01f3bc          0x18c         396   
.text.SPI4_TransferSetu 0x9d01f548          0x188         392   
.text.DMA0_InterruptHan 0x9d01f6d0          0x188         392   
.text.DMA1_InterruptHan 0x9d01f858          0x188         392   
.text.USBHS_DMAOperatio 0x9d01f9e0          0x184         388   
.text.F_DRV_USBHS_DEVIC 0x9d01fb64          0x184         388   
.text.SYS_FS_FileRead   0x9d01fce8          0x184         388   
.text.chk_share         0x9d01fe6c          0x180         384   
.text.put_lfn           0x9d01ffec          0x180         384   
.text.SYS_FS_FileClose  0x9d02016c          0x180         384   
.text.lDRV_SDSPI_WriteB 0x9d0202ec          0x170         368   
.text.SYS_FS_DirectoryM 0x9d02045c          0x170         368   
.text.SYS_Initialize    0x9d0205cc          0x170         368   
.text.OSAL_SEM_Create   0x9d02073c          0x16c         364   
.text.USBHS_DeviceTxEnd 0x9d0208a8          0x168         360   
.text                   0x9d020a10          0x2d0         720  App's exec code 
.text.FATFS_opendir     0x9d020ce0          0x164         356   
.text.F_USB_DEVICE_Conf 0x9d020e44          0x164         356   
.text.lDRV_SPI_DriverHa 0x9d020fa8          0x15c         348   
.text.xTaskCheckForTime 0x9d021104          0x15c         348   
.text.SYS_FS_MEDIA_MANA 0x9d021260          0x158         344   
.text.prvInsertBlockInt 0x9d0213b8          0x158         344   
.text.lDRV_SDSPI_SendAC 0x9d021510          0x154         340   
.text.SYS_FS_FileEOF    0x9d021664          0x14c         332   
.text.SYS_TIME_UpdateTi 0x9d0217b0          0x14c         332   
.text.F_USB_DEVICE_Ep0T 0x9d0218fc          0x14c         332   
.text.lDRV_SDSPI_MediaC 0x9d021a48          0x148         328   
.text.SYS_TIME_PLIBCall 0x9d021b90          0x148         328   
.text.DRV_USBHS_Tasks_I 0x9d021cd8          0x144         324   
.text.F_USB_DEVICE_CDC_ 0x9d021e1c          0x144         324   
.text.prvUnlockQueue    0x9d021f60          0x144         324   
.rodata.gDrvSDSPICmdTab 0x9d0220a4          0x140         320   
.text.DRV_USBHS_ClientE 0x9d0221e4          0x13c         316   
.text.f_mount           0x9d022320          0x13c         316   
.text.f_chmod           0x9d02245c          0x138         312   
.text.SYS_TIME_TimerAdd 0x9d022594          0x138         312   
.text.dir_remove        0x9d0226cc          0x134         308   
.text.F_USB_DEVICE_CDC_ 0x9d022800          0x134         308   
.text.F_USB_DEVICE_CDC_ 0x9d022934          0x134         308   
.text.DRV_USBHS_DEVICE_ 0x9d022a68          0x130         304   
.text.F_USB_DEVICE_Forw 0x9d022b98          0x130         304   
.text.USBHS_TestModeEnt 0x9d022cc8          0x12c         300   
.text.lDRV_SDSPI_Driver 0x9d022df4          0x128         296   
.text.dir_clear         0x9d022f1c          0x128         296   
.text.dir_alloc         0x9d023044          0x128         296   
.text.get_ldnumber      0x9d02316c          0x128         296   
.text.SYS_TIME_RemoveFr 0x9d023294          0x128         296   
.text.xTaskCreate       0x9d0233bc          0x128         296   
.text.xQueueGenericCrea 0x9d0234e4          0x128         296   
.text.SYS_TIME_ClientNo 0x9d02360c          0x124         292   
.text.pxPortInitialiseS 0x9d023730          0x124         292   
.text                   0x9d023854          0x120         288  App's exec code 
.text.DRV_USBHS_Tasks_I 0x9d023974          0x11c         284   
.text.F_USB_DEVICE_GetF 0x9d023a90          0x11c         284   
.text.F_USB_DEVICE_DeIn 0x9d023bac          0x118         280   
.text.tchar2uni         0x9d023cc4          0x114         276   
.text.vPortFree         0x9d023dd8          0x114         276   
.text.prvHeapInit       0x9d023eec          0x114         276   
.text.SYS_TIME_TimerSta 0x9d024000          0x110         272   
.text.SYS_Tasks         0x9d024110          0x110         272   
.text.f_chdir           0x9d024220          0x10c         268   
.text.f_utime           0x9d02432c          0x10c         268   
.text.SYS_FS_MEDIA_MANA 0x9d024438          0x10c         268   
.text.f_gets            0x9d024544          0x108         264   
.text.F_USB_DEVICE_Find 0x9d02464c          0x108         264   
.text.sync_window       0x9d024754          0x104         260   
.text.USB_DEVICE_Open   0x9d024858          0x104         260   
.rodata.uc437.uc437     0x9d02495c          0x100         256   
.text.disk_ioctl        0x9d024a5c          0x100         256   
.text.USB_DEVICE_Contro 0x9d024b5c          0x100         256   
.text.vTaskStartSchedul 0x9d024c5c           0xfc         252   
.text.put_utf           0x9d024d58           0xf8         248   
.text.lDRV_SDSPI_ReadCS 0x9d024e50           0xf4         244   
.text.disk_read_aligned 0x9d024f44           0xf4         244   
.text.strchr            0x9d025038           0xf4         244   
.text.putc_bfd          0x9d02512c           0xec         236   
.text.vListInsert       0x9d025218           0xec         236   
.text.F_DRV_USBHS_DEVIC 0x9d025304           0xe8         232   
.text.disk_checkCommand 0x9d0253ec           0xe8         232   
.text.DMAC_Initialize   0x9d0254d4           0xe8         232   
.text.ff_uni2oem        0x9d0255bc           0xe4         228   
.text.USB_DEVICE_Contro 0x9d0256a0           0xe4         228   
.text.dec_share         0x9d025784           0xe0         224   
.text.prvInitialiseTask 0x9d025864           0xe0         224   
.text.strncmp           0x9d025944           0xe0         224   
.text.lDRV_SDSPI_CheckI 0x9d025a24           0xdc         220   
.text.DRV_USBHS_DEVICE_ 0x9d025b00           0xdc         220   
.text.DRV_USBHS_DEVICE_ 0x9d025bdc           0xdc         220   
.text.general_exception 0x9d025cb8           0xdc         220   
.text.CLK_Initialize    0x9d025d94           0xd8         216   
.text.SPI4_Initialize   0x9d025e6c           0xd8         216   
.text.validate          0x9d025f44           0xd8         216   
.text._cache_err_except 0x9d02601c           0xd8         216   
.text.simple_tlb_refill 0x9d0260f4           0xd8         216   
.text.lDRV_SDSPI_ReadCI 0x9d0261cc           0xd4         212   
.text.SYS_TIME_UpdateTi 0x9d0262a0           0xd4         212   
.text.APP_FREERTOS_Task 0x9d026374           0xd4         212   
.text.lDRV_SDSPI_ReadOC 0x9d026448           0xd0         208   
.text.USBHS_DeviceEPFIF 0x9d026518           0xd0         208   
.text.FATFS_getclusters 0x9d0265e8           0xd0         208   
.text.lDRV_SDSPI_Update 0x9d0266b8           0xcc         204   
.text.DRV_SDSPI_Close   0x9d026784           0xcc         204   
.text.SYS_FS_MEDIA_MANA 0x9d026850           0xcc         204   
.text.APP_FREERTOS_Init 0x9d02691c           0xcc         204   
.text.f_fdisk           0x9d0269e8           0xc8         200   
.text.SYS_FS_MEDIA_MANA 0x9d026ab0           0xc8         200   
.text.f_stat            0x9d026b78           0xc4         196   
.text.SYS_TIME_TimerDes 0x9d026c3c           0xc4         196   
.text.F_DRV_USBHS_DEVIC 0x9d026d00           0xc0         192   
.text.SYS_TIME_Callback 0x9d026dc0           0xc0         192   
.rodata.cvt2.30279.cvt2 0x9d026e80           0xbc         188   
.text.SYS_TIME_Initiali 0x9d026f3c           0xbc         188   
.text.vTaskEnterCritica 0x9d026ff8           0xbc         188   
.tlb.__pic32_tlb_init_e 0x9d0270b4           0xbc         188   
.text.lDRV_SPI_PlibCall 0x9d027170           0xb4         180   
.text.move_window       0x9d027224           0xb4         180   
.text.DRV_SPI_TransferS 0x9d0272d8           0xb0         176   
.text.SYS_FS_MEDIA_T_MA 0x9d027388           0xb0         176   
.text.SYS_TIME_GetTimer 0x9d027438           0xb0         176   
.text.xQueueCreateCount 0x9d0274e8           0xb0         176   
.text.st_dword          0x9d027598           0xac         172   
.text.vTaskDelay        0x9d027644           0xac         172   
.text.prvCopyDataFromQu 0x9d0276f0           0xac         172   
.text.DRV_USBHS_DEVICE_ 0x9d02779c           0xa8         168   
.text.ff_oem2uni        0x9d027844           0xa8         168   
.text.F_USB_DEVICE_Redi 0x9d0278ec           0xa8         168   
.text.USB_DEVICE_CDC_Ev 0x9d027994           0xa8         168   
.text                   0x9d027a3c           0xa8         168  App's exec code 
.text.F_DRV_USBHS_DEVIC 0x9d027ae4           0xa4         164   
.text.SYS_FS_MEDIA_MANA 0x9d027b88           0xa4         164   
.text.SYS_TIME_Resource 0x9d027c2c           0xa4         164   
.text.USB_DEVICE_Endpoi 0x9d027cd0           0xa4         164   
.text.F_DRV_USBHS_DEVIC 0x9d027d74           0xa0         160   
.text.DRV_USBHS_DEVICE_ 0x9d027e14           0xa0         160   
.text.GPIO_Initialize   0x9d027eb4           0xa0         160   
.text.f_close           0x9d027f54           0xa0         160   
.text.putc_flush        0x9d027ff4           0xa0         160   
.text.FATFS_readdir     0x9d028094           0xa0         160   
.text.uxListRemove      0x9d028134           0xa0         160   
.text.diskEventHandler  0x9d0281d4           0x9c         156   
.text.USB_DEVICE_EventH 0x9d028270           0x9c         156   
.text.vApplicationSetup 0x9d02830c           0x9c         156   
.text.DRV_SDSPI_SPIWrit 0x9d0283a8           0x98         152   
.text.DRV_SDSPI_Command 0x9d028440           0x98         152   
.text.USBHS_DeviceEPFIF 0x9d0284d8           0x98         152   
.text.USBHS_DMAErrorGet 0x9d028570           0x98         152   
.text.DRV_USBHS_DEVICE_ 0x9d028608           0x98         152   
.text.OSAL_SEM_Pend     0x9d0286a0           0x98         152   
.text.OSAL_MUTEX_Lock   0x9d028738           0x98         152   
.text.FATFS_mkfs        0x9d0287d0           0x98         152   
.text.SYS_FS_MEDIA_MANA 0x9d028868           0x98         152   
.text.SYS_TIME_MSToCoun 0x9d028900           0x98         152   
.text.prvCheckTasksWait 0x9d028998           0x98         152   
.text                   0x9d028a30           0x98         152  App's exec code 
.text.lDRV_SDSPI_ReadBl 0x9d028ac8           0x94         148   
.text.USBHS_DeviceRxEnd 0x9d028b5c           0x94         148   
.text.USBHS_DeviceTxEnd 0x9d028bf0           0x94         148   
.text.f_closedir        0x9d028c84           0x94         148   
.text.USB_DEVICE_IRPSub 0x9d028d18           0x94         148   
.rodata                 0x9d028dac           0x94         148  Read-only const 
.text.OSAL_SEM_PostISR  0x9d028e40           0x90         144   
.text.f_puts            0x9d028ed0           0x90         144   
.text.prvInitialiseNewQ 0x9d028f60           0x90         144   
.text.DRV_SDSPI_CardDet 0x9d028ff0           0x8c         140   
.text.DRV_SDSPI_CmdResp 0x9d02907c           0x8c         140   
.text.DRV_SDSPI_TimerSt 0x9d029108           0x8c         140   
.text.st_clust          0x9d029194           0x8c         140   
.text.FATFS_close       0x9d029220           0x8c         140   
.text.FATFS_stat        0x9d0292ac           0x8c         140   
.text.FATFS_closedir    0x9d029338           0x8c         140   
.text.USB_DEVICE_Endpoi 0x9d0293c4           0x8c         140   
.text.USB_DEVICE_Contro 0x9d029450           0x8c         140   
.text.USB_DEVICE_IRPCan 0x9d0294dc           0x8c         140   
.text.xPortStartSchedul 0x9d029568           0x8c         140   
.text.DRV_SDSPI_IsAttac 0x9d0295f4           0x88         136   
.text.ld_dword          0x9d02967c           0x88         136   
.text.clear_share       0x9d029704           0x88         136   
.text.USB_DEVICE_Detach 0x9d02978c           0x88         136   
.rodata.FatFsFunctions. 0x9d029814           0x88         136   
.text.USBHS_EndpointRxF 0x9d02989c           0x84         132   
.text.USBHS_TxEPStatusC 0x9d029920           0x84         132   
.text.USBHS_RxEPStatusC 0x9d0299a4           0x84         132   
.text.ld_clust          0x9d029a28           0x84         132   
.text.get_fattime       0x9d029aac           0x84         132   
.text.vTaskExitCritical 0x9d029b30           0x84         132   
.text                   0x9d029bb4           0x84         132  App's exec code 
.text.DRV_SDSPI_SPISpee 0x9d029c38           0x80         128   
.text.lDRV_SDSPI_SendIn 0x9d029cb8           0x80         128   
.text.DRV_SDSPI_Geometr 0x9d029d38           0x80         128   
.text.USBHS_EndpointTxF 0x9d029db8           0x80         128   
.text.EVIC_Initialize   0x9d029e38           0x80         128   
.rodata.ExCvt.ExCvt     0x9d029eb8           0x80         128   
.text.clst2sect         0x9d029f38           0x80         128   
.text.SYS_TIME_GetElaps 0x9d029fb8           0x80         128   
.text.lDRV_SDSPI_EnterI 0x9d02a038           0x7c         124   
.text.CORETIMER_Start   0x9d02a0b4           0x7c         124   
.text.sum_sfn           0x9d02a130           0x7c         124   
.text.USB_DEVICE_Attach 0x9d02a1ac           0x7c         124   
.text.F_USB_DEVICE_Clie 0x9d02a228           0x7c         124   
.text.prvTaskExitError  0x9d02a2a4           0x7c         124   
.text.enq_share         0x9d02a320           0x78         120   
.text.F_USB_DEVICE_CDC_ 0x9d02a398           0x78         120   
.text.vTaskPlaceOnEvent 0x9d02a410           0x78         120   
.text.PLIB_USBHS_Device 0x9d02a488           0x74         116   
.text.PLIB_USBHS_Device 0x9d02a4fc           0x74         116   
.text.DRV_USBHS_Close   0x9d02a570           0x74         116   
.text.SYS_DMA_Addressin 0x9d02a5e4           0x74         116   
.text.FATFS_read        0x9d02a658           0x74         116   
.text.FATFS_write       0x9d02a6cc           0x74         116   
.text.SYS_INT_SourceDis 0x9d02a740           0x74         116   
.text.SYS_TIME_Resource 0x9d02a7b4           0x74         116   
.text.vPortIncrementTic 0x9d02a828           0x74         116   
.text.CORE_TIMER_Interr 0x9d02a89c           0x70         112   
.text.f_putc            0x9d02a90c           0x70         112   
.text.OSAL_CRIT_Enter   0x9d02a97c           0x6c         108   
.text.OSAL_CRIT_Leave   0x9d02a9e8           0x6c         108   
.text.OSAL_MUTEX_Unlock 0x9d02aa54           0x6c         108   
.text.EVIC_SourceEnable 0x9d02aac0           0x6c         108   
.text.EVIC_SourceDisabl 0x9d02ab2c           0x6c         108   
.text.EVIC_SourceStatus 0x9d02ab98           0x6c         108   
.text.F_USB_DEVICE_CDC_ 0x9d02ac04           0x6c         108   
.text.prvIsQueueFull    0x9d02ac70           0x6c         108   
.text.DRV_SDSPI_SPIWrit 0x9d02acdc           0x68         104   
.text.DRV_SDSPI_SPIRead 0x9d02ad44           0x68         104   
.text.DRV_SDSPI_EventHa 0x9d02adac           0x68         104   
.text.USBHS_InterruptEn 0x9d02ae14           0x68         104   
.text.EVIC_SourceIsEnab 0x9d02ae7c           0x68         104   
.text.st_word           0x9d02aee4           0x68         104   
.text.FATFS_chdrive     0x9d02af4c           0x68         104   
.text.vListInitialise   0x9d02afb4           0x68         104   
.text.prvInitialiseMute 0x9d02b01c           0x68         104   
.text.xQueueCreateMutex 0x9d02b084           0x68         104   
.text.memmove           0x9d02b0ec           0x68         104   
.text.DRV_SDSPI_CmdResp 0x9d02b154           0x64         100   
.text.DRV_SDSPI_TimerSt 0x9d02b1b8           0x64         100   
.text.USBHS_DeviceAttac 0x9d02b21c           0x64         100   
.text.F_DRV_USBHS_DEVIC 0x9d02b280           0x64         100   
.text.OSAL_MUTEX_Create 0x9d02b2e4           0x64         100   
.text.f_chdrive         0x9d02b348           0x64         100   
.text.SYS_FS_MEDIA_T_MA 0x9d02b3ac           0x64         100   
.text.vApplicationStack 0x9d02b410           0x64         100   
.text.prvIsQueueEmpty   0x9d02b474           0x64         100   
.text.DMAC_ChannelCallb 0x9d02b4d8           0x64         100   
.text.DRV_SDSPI_Read    0x9d02b53c           0x60          96   
.text.DRV_SDSPI_Write   0x9d02b59c           0x60          96   
.text.DRV_USBHS_DEVICE_ 0x9d02b5fc           0x60          96   
.text.DRV_USBHS_DEVICE_ 0x9d02b65c           0x60          96   
.text.SYS_CACHE_Invalid 0x9d02b6bc           0x60          96   
.text.SYS_CACHE_CleanDC 0x9d02b71c           0x60          96   
.text.FATFS_chmod       0x9d02b77c           0x60          96   
.text.xTaskGetScheduler 0x9d02b7dc           0x60          96   
.text.DRV_SDSPI_SPIBloc 0x9d02b83c           0x5c          92   
.text.DRV_SDSPI_SPIBloc 0x9d02b898           0x5c          92   
.text.USBHS_TxInterrupt 0x9d02b8f4           0x5c          92   
.text.USBHS_RxInterrupt 0x9d02b950           0x5c          92   
.text.ld_word           0x9d02b9ac           0x5c          92   
.text.FATFS_lseek       0x9d02ba08           0x5c          92   
.text.FATFS_gets        0x9d02ba64           0x5c          92   
.text.FATFS_sync        0x9d02bac0           0x5c          92   
.text.FATFS_putc        0x9d02bb1c           0x5c          92   
.text.FATFS_printf      0x9d02bb78           0x5c          92   
.text.vApplicationMallo 0x9d02bbd4           0x5c          92   
.text.prvGetDisinheritP 0x9d02bc30           0x5c          92   
.text.lDRV_SDSPI_PollBu 0x9d02bc8c           0x58          88   
.text.USBHS_DeviceRxEnd 0x9d02bce4           0x58          88   
.text.USBHS_DeviceTxEnd 0x9d02bd3c           0x58          88   
.text.USBHS_DeviceTxEnd 0x9d02bd94           0x58          88   
.text.PLIB_USBHS_Device 0x9d02bdec           0x58          88   
.text.FATFS_fdisk       0x9d02be44           0x58          88   
.text.vAssertCalled     0x9d02be9c           0x58          88   
.rodata                 0x9d02bef4           0x58          88  Read-only const 
.text.uxPortSetInterrup 0x9d02bf4c           0x58          88   
.text.prvIdleTask       0x9d02bfa4           0x58          88   
.text.GPIO_PinSet       0x9d02bffc           0x54          84   
.text.DRV_SDSPI_Registe 0x9d02c050           0x54          84   
.text.GPIO_PinSet       0x9d02c0a4           0x54          84   
.text.GPIO_PinClear     0x9d02c0f8           0x54          84   
.text.DRV_SPI_ReadTrans 0x9d02c14c           0x54          84   
.text.USBHS_GetReceiveD 0x9d02c1a0           0x54          84   
.rodata                 0x9d02c1f4           0x54          84  Read-only const 
.text.FATFS_eof         0x9d02c248           0x54          84   
.text.FATFS_truncate    0x9d02c29c           0x54          84   
.text.FATFS_puts        0x9d02c2f0           0x54          84   
.text.main_entry        0x9d02c344           0x54          84   
.text.DRV_SDSPI_SPIExcl 0x9d02c398           0x50          80   
.text.lDRV_SDSPI_MAKE_H 0x9d02c3e8           0x50          80   
.text.lDRV_SDSPI_UPDATE 0x9d02c438           0x50          80   
.text.lDRV_SPI_MAKE_HAN 0x9d02c488           0x50          80   
.text.lDRV_SPI_UPDATE_T 0x9d02c4d8           0x50          80   
.text.DRV_SPI_WriteTran 0x9d02c528           0x50          80   
.text.USBHS_LoadEPInInd 0x9d02c578           0x50          80   
.text.USBHS_DeviceAddre 0x9d02c5c8           0x50          80   
.text.USBHS_TxEPStatusG 0x9d02c618           0x50          80   
.text.USBHS_RxEPStatusG 0x9d02c668           0x50          80   
.text.PLIB_USBHS_Device 0x9d02c6b8           0x50          80   
.text.PLIB_USBHS_Interr 0x9d02c708           0x50          80   
.text.PLIB_USBHS_TxEPSt 0x9d02c758           0x50          80   
.text.PLIB_USBHS_RxEPSt 0x9d02c7a8           0x50          80   
.text.putc_init         0x9d02c7f8           0x50          80   
.text.FATFS_getlabel    0x9d02c848           0x50          80   
.text.FATFS_utime       0x9d02c898           0x50          80   
.text.SYS_TIME_UPDATE_T 0x9d02c8e8           0x50          80   
.text.prvResetNextTaskU 0x9d02c938           0x50          80   
.text.USBHS_GlobalInter 0x9d02c988           0x4c          76   
.text.SYS_DMA_DataWidth 0x9d02c9d4           0x4c          76   
.text.SYS_INT_SourceRes 0x9d02ca20           0x4c          76   
.text.prvDeleteTCB      0x9d02ca6c           0x4c          76   
.text.DRV_SPI_Lock      0x9d02cab8           0x48          72   
.text.PLIB_USBHS_Endpoi 0x9d02cb00           0x48          72   
.text.PLIB_USBHS_Endpoi 0x9d02cb48           0x48          72   
.text.PLIB_USBHS_DMAErr 0x9d02cb90           0x48          72   
.text.PLIB_USBHS_LoadEP 0x9d02cbd8           0x48          72   
.text.PLIB_USBHS_GetRec 0x9d02cc20           0x48          72   
.text.PLIB_USBHS_TestMo 0x9d02cc68           0x48          72   
.text.PLIB_USBHS_Device 0x9d02ccb0           0x48          72   
.text.PLIB_USBHS_TxEPSt 0x9d02ccf8           0x48          72   
.text.PLIB_USBHS_RxEPSt 0x9d02cd40           0x48          72   
.text.PLIB_USBHS_Device 0x9d02cd88           0x48          72   
.text.PLIB_USBHS_Device 0x9d02cdd0           0x48          72   
.text.PLIB_USBHS_Device 0x9d02ce18           0x48          72   
.text.PLIB_USBHS_Device 0x9d02ce60           0x48          72   
.text.PLIB_USBHS_Device 0x9d02cea8           0x48          72   
.text.CACHE_DataCacheCl 0x9d02cef0           0x48          72   
.text.CACHE_DataCacheIn 0x9d02cf38           0x48          72   
.text.CORETIMER_Stop    0x9d02cf80           0x48          72   
.text.EVIC_INT_Disable  0x9d02cfc8           0x48          72   
.text.SPI4_CallbackRegi 0x9d02d010           0x48          72   
.text.disk_initialize   0x9d02d058           0x48          72   
.text.FATFS_getcwd      0x9d02d0a0           0x48          72   
.text.FATFS_rename      0x9d02d0e8           0x48          72   
.text.FATFS_error       0x9d02d130           0x48          72   
.rodata                 0x9d02d178           0x48          72  Read-only const 
.text.USBHS_DMAInterrup 0x9d02d1c0           0x44          68   
.text.GPIO_PortSet      0x9d02d204           0x44          68   
.text.GPIO_PortClear    0x9d02d248           0x44          68   
.text.dbc_1st           0x9d02d28c           0x44          68   
.text.dbc_2nd           0x9d02d2d0           0x44          68   
.rodata.highSpeedConfig 0x9d02d314           0x44          68   
.rodata.fullSpeedConfig 0x9d02d358           0x44          68   
.rodata                 0x9d02d39c           0x88         136  Read-only const 
.text                   0x9d02d424           0x44          68  App's exec code 
.text.lDRV_SDSPI_TurnOf 0x9d02d468           0x40          64   
.text.lDRV_SDSPI_SetBlo 0x9d02d4a8           0x40          64   
.text.USBHS_TxInterrupt 0x9d02d4e8           0x40          64   
.text.USBHS_HighSpeedIs 0x9d02d528           0x40          64   
.text.USBHS_EP0SetupEnd 0x9d02d568           0x40          64   
.text.USBHS_EP0RxPktRdy 0x9d02d5a8           0x40          64   
.text.USBHS_EP0TxPktRdy 0x9d02d5e8           0x40          64   
.text.USBHS_EP0DataEndS 0x9d02d628           0x40          64   
.text.USBHS_EP0StallEna 0x9d02d668           0x40          64   
.text.PLIB_USBHS_TxInte 0x9d02d6a8           0x40          64   
.text.PLIB_USBHS_TxInte 0x9d02d6e8           0x40          64   
.text.PLIB_USBHS_RxInte 0x9d02d728           0x40          64   
.text.PLIB_USBHS_Device 0x9d02d768           0x40          64   
.text.DRV_USBHS_Interru 0x9d02d7a8           0x40          64   
.text.DRV_USBHS_DMAInte 0x9d02d7e8           0x40          64   
.text.CORETIMER_Initial 0x9d02d828           0x40          64   
.text.EVIC_INT_Restore  0x9d02d868           0x40          64   
.text.FATFS_chdir       0x9d02d8a8           0x40          64   
.text.FATFS_tell        0x9d02d8e8           0x40          64   
.text.FATFS_size        0x9d02d928           0x40          64   
.text.FATFS_mkdir       0x9d02d968           0x40          64   
.text.FATFS_unlink      0x9d02d9a8           0x40          64   
.text.FATFS_setlabel    0x9d02d9e8           0x40          64   
.text.SYS_INT_Restore   0x9d02da28           0x40          64   
.text.SYS_TIME_MAKE_HAN 0x9d02da68           0x40          64   
.text.F_USB_DEVICE_Task 0x9d02daa8           0x40          64   
.text.F_DRV_USBHS_Tasks 0x9d02dae8           0x40          64   
.text.pvTaskIncrementMu 0x9d02db28           0x40          64   
.text.SYS_PORT_PinSet   0x9d02db68           0x78         120   
.text.SYS_PORT_PinClear 0x9d02dbe0           0x3c          60   
.text.USBHS_DeviceDetac 0x9d02dc1c           0x3c          60   
.text.USBHS_EP0SentStal 0x9d02dc58           0x3c          60   
.text.USBHS_VBUSLevelGe 0x9d02dc94           0x3c          60   
.text.lDRV_SDSPI_0_Task 0x9d02dcd0           0x3c          60   
.text.vTaskInternalSetT 0x9d02dd0c           0x3c          60   
.text.DRV_SDSPI_TimerCa 0x9d02dd48           0x38          56   
.text.DRV_SDSPI_Tasks   0x9d02dd80           0x38          56   
.text.USBHS_TxInterrupt 0x9d02ddb8           0x38          56   
.text.USBHS_RxInterrupt 0x9d02ddf0           0x38          56   
.text.USBHS_GenInterrup 0x9d02de28           0x38          56   
.text.USBHS_EP0StatusGe 0x9d02de60           0x38          56   
.text.USBHS_EP0RxPktRdy 0x9d02de98           0x38          56   
.text.USBHS_EP0TxPktRdy 0x9d02ded0           0x38          56   
.text.PLIB_USBHS_TxInte 0x9d02df08           0x38          56   
.text.PLIB_USBHS_RxInte 0x9d02df40           0x38          56   
.text.PLIB_USBHS_GenInt 0x9d02df78           0x38          56   
.text.PLIB_USBHS_HighSp 0x9d02dfb0           0x38          56   
.text.PLIB_USBHS_DMAInt 0x9d02dfe8           0x38          56   
.text.PLIB_USBHS_GetEP0 0x9d02e020           0x38          56   
.text.PLIB_USBHS_GetEP0 0x9d02e058           0x38          56   
.text.PLIB_USBHS_Device 0x9d02e090           0x38          56   
.text.PLIB_USBHS_EP0Sta 0x9d02e0c8           0x38          56   
.text.PLIB_USBHS_EP0Sen 0x9d02e100           0x38          56   
.text.PLIB_USBHS_EP0Sta 0x9d02e138           0x38          56   
.text.PLIB_USBHS_EP0Set 0x9d02e170           0x38          56   
.text.PLIB_USBHS_EP0RxP 0x9d02e1a8           0x38          56   
.text.PLIB_USBHS_EP0RxP 0x9d02e1e0           0x38          56   
.text.PLIB_USBHS_EP0TxP 0x9d02e218           0x38          56   
.text.PLIB_USBHS_EP0TxP 0x9d02e250           0x38          56   
.text.PLIB_USBHS_EP0Dat 0x9d02e288           0x38          56   
.rodata                 0x9d02e2c0           0x38          56  Read-only const 
.text.USBHS_SoftResetEn 0x9d02e2f8           0x38          56   
.text.PLIB_USBHS_SoftRe 0x9d02e330           0x38          56   
.text.PLIB_USBHS_Global 0x9d02e368           0x38          56   
.text.PLIB_USBHS_VBUSLe 0x9d02e3a0           0x38          56   
.text.CORETIMER_Callbac 0x9d02e3d8           0x38          56   
.text.CORETIMER_Compare 0x9d02e410           0x38          56   
.text.vPortClearInterru 0x9d02e448           0x38          56   
.text.USBHS_GetEP0FIFOA 0x9d02e480           0x34          52   
.text.USBHS_GetEP0CSRAd 0x9d02e4b4           0x34          52   
.text.DRV_USBHS_DEVICE_ 0x9d02e4e8           0x34          52   
.text.CORETIMER_Counter 0x9d02e51c           0x34          52   
.text.SPI4_IsTransmitte 0x9d02e550           0x34          52   
.text.SYS_FS_MEDIA_MANA 0x9d02e584           0x34          52   
.rodata.usbDevInitData. 0x9d02e5b8           0x34          52   
.rodata.sdspiMediaFunct 0x9d02e5ec           0x30          48   
.text.CACHE_CacheCohere 0x9d02e61c           0x30          48   
.text.SYS_FS_Tasks      0x9d02e64c           0x30          48   
.text.SYS_INT_Disable   0x9d02e67c           0x30          48   
.rodata.drvUSBInit.drvU 0x9d02e6ac           0x30          48   
.text.CORE_TIMER_Handle 0x9d02e6dc           0x30          48   
.text.USB_Handler       0x9d02e70c           0x30          48   
.text.USB_DMA_Handler   0x9d02e73c           0x30          48   
.text.DMA0_Handler      0x9d02e76c           0x30          48   
.text.DMA1_Handler      0x9d02e79c           0x30          48   
.text.SPI4_RX_Handler   0x9d02e7cc           0x30          48   
.text.SPI4_TX_Handler   0x9d02e7fc           0x30          48   
.text._general_exceptio 0x9d02e82c           0x30          48   
.text._bootstrap_except 0x9d02e85c           0x30          48   
.text._cache_err_except 0x9d02e88c           0x30          48   
.text._simple_tlb_refil 0x9d02e8bc           0x30          48   
.text.lSYS_FS_Tasks     0x9d02e8ec           0x30          48   
.rodata                 0x9d02e91c           0x30          48  Read-only const 
.text.lDRV_SDSPI_CheckW 0x9d02e94c           0x2c          44   
.text.disk_status       0x9d02e978           0x2c          44   
.rodata.usbMasterDescri 0x9d02e9a4           0x2c          44   
.text.vTaskSuspendAll   0x9d02e9d0           0x2c          44   
.text.vListInitialiseIt 0x9d02e9fc           0x2c          44   
.text.main              0x9d02ea28           0x2c          44   
.text.lDRV_SPI_TX_DMA_C 0x9d02ea54           0x28          40   
.text.CORETIMER_Frequen 0x9d02ea7c           0x28          40   
.rodata.drvSPI0remapDat 0x9d02eaa4           0x28          40   
.rodata.drvSPI0InitData 0x9d02eacc           0x28          40   
.text.vTaskMissedYield  0x9d02eaf4           0x28          40   
.rodata.drvSDSPI0InitDa 0x9d02eb1c           0x24          36   
.text.lAPP_FREERTOS_Tas 0x9d02eb40           0x24          36   
.text.uxTaskGetNumberOf 0x9d02eb64           0x24          36   
.rodata                 0x9d02eb88           0x20          32  Read-only const 
.rodata.sysTimePlibAPI. 0x9d02eba8           0x1c          28   
.text                   0x9d02ebc4           0x18          24  App's exec code 
.rodata.badchr.31067.ba 0x9d02ebdc           0x14          20   
.rodata.cdcFunctionDriv 0x9d02ebf0           0x14          20   
.rodata.funcRegistratio 0x9d02ec04           0x14          20   
.rodata.usbDeviceDescri 0x9d02ec18           0x14          20   
.rodata.LfnOfs.LfnOfs   0x9d02ec2c           0x10          16   
.rodata.defopt.31106.de 0x9d02ec3c           0x10          16   
.rodata.cst32.31105.cst 0x9d02ec4c           0x10          16   
.rodata.cst.31104.cst   0x9d02ec5c           0x10          16   
.rodata.drvSPI0PlibAPI. 0x9d02ec6c           0x10          16   
.rodata.sysfsMountTable 0x9d02ec7c           0x10          16   
.rodata.sd001.sd001     0x9d02ec8c           0x10          16   
.rodata.sd002.sd002     0x9d02ec9c           0x10          16   
.rodata.cdcInit0.cdcIni 0x9d02ecac            0xc          12   
.rodata.deviceQualifier 0x9d02ecb8            0xc          12   
.rodata.stringDescripto 0x9d02ecc4            0xc          12   
.rodata.gPartitionTypeO 0x9d02ecd0            0x8           8   
.rodata                 0x9d02ecd8            0x8           8  Read-only const 
.rodata.drvSPI0remapClo 0x9d02ece0            0x8           8   
.rodata.drvSPI0remapClo 0x9d02ece8            0x8           8   
.rodata.sysFSInit.sysFS 0x9d02ecf0            0x8           8   
.rodata.sysTimeInitData 0x9d02ecf8            0x8           8   
.text._on_reset         0x9d02ed00            0x8           8   
.text._on_bootstrap     0x9d02ed08            0x8           8   
.rodata.highSpeedConfig 0x9d02ed10            0x4           4   
.rodata.fullSpeedConfig 0x9d02ed14            0x4           4   
.rodata.sd000.sd000     0x9d02ed18            0x4           4   
.rodata.xISRStackTop.xI 0x9d02ed1c            0x4           4   
.data.uxTopUsedPriority 0x9d02ed20            0x4           4   
      Total kseg0_program_mem used  :     0x2ed24      191780  9.1% of 0x200000

kseg0 Boot-Memory Usage
section                    address  length [bytes]      (dec)  Description
-------                 ----------  -------------------------  -----------
         Total kseg0_boot_mem used  :           0           0  

kseg1 Boot-Memory Usage
section                    address  length [bytes]      (dec)  Description
-------                 ----------  -------------------------  -----------
.reset                  0xbfc00000          0x1c4         452  Reset handler 
.bev_excpt              0xbfc00380           0x10          16  BEV-Exception 
         Total kseg1_boot_mem used  :       0x1d4         468  40.6% of 0x480
        --------------------------------------------------------------------------
         Total Program Memory used  :     0x2eef8      192248  9.2% of 0x200480
        --------------------------------------------------------------------------


kseg0 Data-Memory Usage
section                    address  length [bytes]      (dec)  Description
-------                 ----------  -------------------------  -----------
.sdata                  0x80000000           0x2c          44  Small init data 
.sbss                   0x8000002c           0xac         172  Small uninit data 
.bss                    0x800000d8          0x178         376  Uninitialized data 
.bss.ucHeap.ucHeap      0x80001c00        0x1e460      124000   
.bss.xISRStack.xISRStac 0x80020060         0x8000       32768   
.bss.gSYSFSFileObj.gSYS 0x80028060          0x220         544   
.bss.LfnBuf.LfnBuf      0x80028280          0x200         512   
.bss.usbDeviceInstance. 0x80028480          0x164         356   
.bss.pxReadyTasksLists. 0x800285e4           0xc8         200   
.bss.timers.timers      0x800286ac           0xb4         180   
.bss.gDrvUSBEndpoints.g 0x80028760           0xa0         160   
.bss.gDMAChannelObj.gDM 0x80028800           0x80         128   
.bss.gUSBDeviceCDCIRP.g 0x80028880           0x6c         108   
.bss.gSysDMAChannelObj. 0x800288ec           0x60          96   
.bss.drvSPI0ClientObjPo 0x8002894c           0x58          88   
.data.gDrvUSBHSDeviceIn 0x800289a4           0x50          80   
.bss.gUSBDeviceCDCInsta 0x800289f4           0x44          68   
.bss.gSystemCounterObj. 0x80028a38           0x40          64   
.bss.gSYSFSMediaObject. 0x80028a78           0x2c          44   
.bss.spi4Obj.spi4Obj    0x80028aa4           0x28          40   
.bss.Files.Files        0x80028acc           0x20          32   
.bss.gSYSFSDirObj.gSYSF 0x80028aec           0x20          32   
.bss.gSYSFSVolumeObject 0x80028b0c           0x1c          28   
.data.gSYSFSMediaManage 0x80028b28           0x18          24   
.bss.gSYSFSMountPoint.g 0x80028b40           0x18          24   
.data.gSYSFSVolumeName. 0x80028b58           0x14          20   
.bss.drvSDSPI0ClientObj 0x80028b6c           0x14          20   
.bss.xDelayedTaskList1. 0x80028b80           0x14          20   
.bss.xDelayedTaskList2. 0x80028b94           0x14          20   
.bss.xPendingReadyList. 0x80028ba8           0x14          20   
.bss.xTasksWaitingTermi 0x80028bbc           0x14          20   
.bss.xSuspendedTaskList 0x80028bd0           0x14          20   
.data.switchPromptUSB.s 0x80028bf0           0x10          16   
         Total kseg0_data_mem used  :     0x27244      160324  30.6% of 0x80000
        --------------------------------------------------------------------------
            Total Data Memory used  :     0x27244      160324  30.6% of 0x80000
        --------------------------------------------------------------------------


Dynamic Data-Memory Reservation
section                    address  length [bytes]      (dec)  Description
-------                 ----------  -------------------------  -----------
heap                    0x80028c08          0x200         512  Reserved for heap 
stack                   0x80028e20        0x571d8      356824  Reserved for stack 

        --------------------------------------------------------------------------

Discarded input sections

 .text          0x00000000        0x0 c:/program files/microchip/xc32/v2.50/bin/bin/../../lib/gcc/pic32mx/4.8.3/../../../../pic32mx/lib/fpu64\debug-exception-return.o
 .data          0x00000000        0x0 c:/program files/microchip/xc32/v2.50/bin/bin/../../lib/gcc/pic32mx/4.8.3/../../../../pic32mx/lib/fpu64\debug-exception-return.o
 .bss           0x00000000        0x0 c:/program files/microchip/xc32/v2.50/bin/bin/../../lib/gcc/pic32mx/4.8.3/../../../../pic32mx/lib/fpu64\debug-exception-return.o
 .text          0x00000000        0x0 build/default/production/_ext/1100529066/drv_sdspi_driver_interface.o
 .data          0x00000000        0x0 build/default/production/_ext/1100529066/drv_sdspi_driver_interface.o
 .bss           0x00000000        0x0 build/default/production/_ext/1100529066/drv_sdspi_driver_interface.o
 .reginfo       0x00000000       0x18 build/default/production/_ext/1100529066/drv_sdspi_driver_interface.o
 .text          0x00000000        0x0 build/default/production/_ext/1100529066/drv_sdspi.o
 .data          0x00000000        0x0 build/default/production/_ext/1100529066/drv_sdspi.o
 .bss           0x00000000        0x0 build/default/production/_ext/1100529066/drv_sdspi.o
 .reginfo       0x00000000       0x18 build/default/production/_ext/1100529066/drv_sdspi.o
 .text.DRV_SDSPI_Status
                0x00000000       0x6c build/default/production/_ext/1100529066/drv_sdspi.o
 .text.DRV_SDSPI_SyncRead
                0x00000000       0x60 build/default/production/_ext/1100529066/drv_sdspi.o
 .text.DRV_SDSPI_SyncWrite
                0x00000000       0x60 build/default/production/_ext/1100529066/drv_sdspi.o
 .text.DRV_SDSPI_IsWriteProtected
                0x00000000       0xa4 build/default/production/_ext/1100529066/drv_sdspi.o
 .text          0x00000000        0x0 build/default/production/_ext/1100529066/drv_sdspi_file_system.o
 .data          0x00000000        0x0 build/default/production/_ext/1100529066/drv_sdspi_file_system.o
 .bss           0x00000000        0x0 build/default/production/_ext/1100529066/drv_sdspi_file_system.o
 .reginfo       0x00000000       0x18 build/default/production/_ext/1100529066/drv_sdspi_file_system.o
 .text          0x00000000        0x0 build/default/production/_ext/2070931557/drv_spi.o
 .data          0x00000000        0x0 build/default/production/_ext/2070931557/drv_spi.o
 .bss           0x00000000        0x0 build/default/production/_ext/2070931557/drv_spi.o
 .reginfo       0x00000000       0x18 build/default/production/_ext/2070931557/drv_spi.o
 .text.DRV_SPI_Status
                0x00000000       0x7c build/default/production/_ext/2070931557/drv_spi.o
 .text.DRV_SPI_Close
                0x00000000       0xf8 build/default/production/_ext/2070931557/drv_spi.o
 .text          0x00000000        0x0 build/default/production/_ext/2071311437/drv_usbhs_device.o
 .data          0x00000000        0x0 build/default/production/_ext/2071311437/drv_usbhs_device.o
 .bss           0x00000000        0x0 build/default/production/_ext/2071311437/drv_usbhs_device.o
 .reginfo       0x00000000       0x18 build/default/production/_ext/2071311437/drv_usbhs_device.o
 .text.USBHS_TestModeExit_Default
                0x00000000      0x118 build/default/production/_ext/2071311437/drv_usbhs_device.o
 .text.PLIB_USBHS_TestModeExit
                0x00000000       0x48 build/default/production/_ext/2071311437/drv_usbhs_device.o
 .text.DRV_USBHS_DEVICE_IRPCancel
                0x00000000      0x2bc build/default/production/_ext/2071311437/drv_usbhs_device.o
 .text.DRV_USBHS_DEVICE_TestModeExit
                0x00000000       0xb0 build/default/production/_ext/2071311437/drv_usbhs_device.o
 .text          0x00000000        0x0 build/default/production/_ext/2071311437/drv_usbhs.o
 .data          0x00000000        0x0 build/default/production/_ext/2071311437/drv_usbhs.o
 .bss           0x00000000        0x0 build/default/production/_ext/2071311437/drv_usbhs.o
 .reginfo       0x00000000       0x18 build/default/production/_ext/2071311437/drv_usbhs.o
 .text.DRV_USBHS_Deinitialize
                0x00000000      0x1a0 build/default/production/_ext/2071311437/drv_usbhs.o
 .text.DRV_USBHS_Status
                0x00000000       0x7c build/default/production/_ext/2071311437/drv_usbhs.o
 .text          0x00000000        0x0 build/default/production/_ext/1529399856/osal_freertos.o
 .data          0x00000000        0x0 build/default/production/_ext/1529399856/osal_freertos.o
 .bss           0x00000000        0x0 build/default/production/_ext/1529399856/osal_freertos.o
 .reginfo       0x00000000       0x18 build/default/production/_ext/1529399856/osal_freertos.o
 .text.OSAL_SEM_Delete
                0x00000000       0x4c build/default/production/_ext/1529399856/osal_freertos.o
 .text.OSAL_SEM_Post
                0x00000000       0x6c build/default/production/_ext/1529399856/osal_freertos.o
 .text.OSAL_SEM_GetCount
                0x00000000       0x64 build/default/production/_ext/1529399856/osal_freertos.o
 .text.OSAL_MUTEX_Delete
                0x00000000       0x68 build/default/production/_ext/1529399856/osal_freertos.o
 .text.OSAL_Malloc
                0x00000000       0x38 build/default/production/_ext/1529399856/osal_freertos.o
 .text.OSAL_Free
                0x00000000       0x38 build/default/production/_ext/1529399856/osal_freertos.o
 .text.OSAL_Initialize
                0x00000000       0x24 build/default/production/_ext/1529399856/osal_freertos.o
 .data          0x00000000        0x0 build/default/production/_ext/1984157808/plib_cache_pic32mz.o
 .bss           0x00000000        0x0 build/default/production/_ext/1984157808/plib_cache_pic32mz.o
 .reginfo       0x00000000       0x18 build/default/production/_ext/1984157808/plib_cache_pic32mz.o
 .text          0x00000000        0x0 build/default/production/_ext/1984157808/plib_cache.o
 .data          0x00000000        0x0 build/default/production/_ext/1984157808/plib_cache.o
 .bss           0x00000000        0x0 build/default/production/_ext/1984157808/plib_cache.o
 .reginfo       0x00000000       0x18 build/default/production/_ext/1984157808/plib_cache.o
 .text.CACHE_CacheInit
                0x00000000       0x40 build/default/production/_ext/1984157808/plib_cache.o
 .text.CACHE_CacheFlush
                0x00000000       0x38 build/default/production/_ext/1984157808/plib_cache.o
 .text.CACHE_DataCacheFlush
                0x00000000       0x38 build/default/production/_ext/1984157808/plib_cache.o
 .text.CACHE_InstructionCacheFlush
                0x00000000       0x38 build/default/production/_ext/1984157808/plib_cache.o
 .text.CACHE_CacheClean
                0x00000000       0x48 build/default/production/_ext/1984157808/plib_cache.o
 .text.CACHE_InstructionCacheInvalidate
                0x00000000       0x48 build/default/production/_ext/1984157808/plib_cache.o
 .text.CACHE_InstructionCacheLock
                0x00000000       0x48 build/default/production/_ext/1984157808/plib_cache.o
 .text.CACHE_DataCacheLock
                0x00000000       0x48 build/default/production/_ext/1984157808/plib_cache.o
 .text.CACHE_CacheSync
                0x00000000       0x48 build/default/production/_ext/1984157808/plib_cache.o
 .text.CACHE_CacheCoherencySet
                0x00000000       0x5c build/default/production/_ext/1984157808/plib_cache.o
 .text.CACHE_DataCacheAssociativityGet
                0x00000000       0x38 build/default/production/_ext/1984157808/plib_cache.o
 .text.CACHE_InstructionCacheAssociativityGet
                0x00000000       0x38 build/default/production/_ext/1984157808/plib_cache.o
 .text.CACHE_DataCacheLineSizeGet
                0x00000000       0x38 build/default/production/_ext/1984157808/plib_cache.o
 .text.CACHE_InstructionCacheLineSizeGet
                0x00000000       0x38 build/default/production/_ext/1984157808/plib_cache.o
 .text.CACHE_DataCacheLinesPerWayGet
                0x00000000       0x38 build/default/production/_ext/1984157808/plib_cache.o
 .text.CACHE_InstructionCacheLinesPerWayGet
                0x00000000       0x38 build/default/production/_ext/1984157808/plib_cache.o
 .text.CACHE_DataCacheSizeGet
                0x00000000       0x38 build/default/production/_ext/1984157808/plib_cache.o
 .text.CACHE_InstructionCacheSizeGet
                0x00000000       0x38 build/default/production/_ext/1984157808/plib_cache.o
 .text          0x00000000        0x0 build/default/production/_ext/60165520/plib_clk.o
 .data          0x00000000        0x0 build/default/production/_ext/60165520/plib_clk.o
 .bss           0x00000000        0x0 build/default/production/_ext/60165520/plib_clk.o
 .reginfo       0x00000000       0x18 build/default/production/_ext/60165520/plib_clk.o
 .text          0x00000000        0x0 build/default/production/_ext/1249264884/plib_coretimer.o
 .data          0x00000000        0x0 build/default/production/_ext/1249264884/plib_coretimer.o
 .bss           0x00000000        0x0 build/default/production/_ext/1249264884/plib_coretimer.o
 .reginfo       0x00000000       0x18 build/default/production/_ext/1249264884/plib_coretimer.o
 .text.CORETIMER_DelayMs
                0x00000000       0x88 build/default/production/_ext/1249264884/plib_coretimer.o
 .text.CORETIMER_DelayUs
                0x00000000       0x70 build/default/production/_ext/1249264884/plib_coretimer.o
 .text          0x00000000        0x0 build/default/production/_ext/1865200349/plib_evic.o
 .data          0x00000000        0x0 build/default/production/_ext/1865200349/plib_evic.o
 .bss           0x00000000        0x0 build/default/production/_ext/1865200349/plib_evic.o
 .reginfo       0x00000000       0x18 build/default/production/_ext/1865200349/plib_evic.o
 .text.EVIC_SourceStatusGet
                0x00000000       0x68 build/default/production/_ext/1865200349/plib_evic.o
 .text.EVIC_SourceStatusSet
                0x00000000       0x6c build/default/production/_ext/1865200349/plib_evic.o
 .text.EVIC_INT_Enable
                0x00000000       0x2c build/default/production/_ext/1865200349/plib_evic.o
 .text          0x00000000        0x0 build/default/production/_ext/1865254177/plib_gpio.o
 .data          0x00000000        0x0 build/default/production/_ext/1865254177/plib_gpio.o
 .bss           0x00000000        0x0 build/default/production/_ext/1865254177/plib_gpio.o
 .reginfo       0x00000000       0x18 build/default/production/_ext/1865254177/plib_gpio.o
 .text.GPIO_PortRead
                0x00000000       0x3c build/default/production/_ext/1865254177/plib_gpio.o
 .text.GPIO_PortWrite
                0x00000000       0x78 build/default/production/_ext/1865254177/plib_gpio.o
 .text.GPIO_PortLatchRead
                0x00000000       0x3c build/default/production/_ext/1865254177/plib_gpio.o
 .text.GPIO_PortToggle
                0x00000000       0x44 build/default/production/_ext/1865254177/plib_gpio.o
 .text.GPIO_PortInputEnable
                0x00000000       0x44 build/default/production/_ext/1865254177/plib_gpio.o
 .text.GPIO_PortOutputEnable
                0x00000000       0x44 build/default/production/_ext/1865254177/plib_gpio.o
 .text          0x00000000        0x0 build/default/production/_ext/298189674/plib_spi4_master.o
 .data          0x00000000        0x0 build/default/production/_ext/298189674/plib_spi4_master.o
 .bss           0x00000000        0x0 build/default/production/_ext/298189674/plib_spi4_master.o
 .reginfo       0x00000000       0x18 build/default/production/_ext/298189674/plib_spi4_master.o
 .text.SPI4_Write
                0x00000000       0x48 build/default/production/_ext/298189674/plib_spi4_master.o
 .text.SPI4_Read
                0x00000000       0x48 build/default/production/_ext/298189674/plib_spi4_master.o
 .text.SPI4_IsBusy
                0x00000000       0x6c build/default/production/_ext/298189674/plib_spi4_master.o
 .text          0x00000000        0x0 build/default/production/_ext/163028504/xc32_monitor.o
 .data          0x00000000        0x0 build/default/production/_ext/163028504/xc32_monitor.o
 .bss           0x00000000        0x0 build/default/production/_ext/163028504/xc32_monitor.o
 .reginfo       0x00000000       0x18 build/default/production/_ext/163028504/xc32_monitor.o
 .text.read     0x00000000       0x30 build/default/production/_ext/163028504/xc32_monitor.o
 .text.write    0x00000000       0x30 build/default/production/_ext/163028504/xc32_monitor.o
 .text          0x00000000        0x0 build/default/production/_ext/1014039709/sys_cache.o
 .data          0x00000000        0x0 build/default/production/_ext/1014039709/sys_cache.o
 .bss           0x00000000        0x0 build/default/production/_ext/1014039709/sys_cache.o
 .reginfo       0x00000000       0x18 build/default/production/_ext/1014039709/sys_cache.o
 .text.SYS_CACHE_EnableCaches
                0x00000000       0x30 build/default/production/_ext/1014039709/sys_cache.o
 .text.SYS_CACHE_DisableCaches
                0x00000000       0x30 build/default/production/_ext/1014039709/sys_cache.o
 .text.SYS_CACHE_EnableICache
                0x00000000       0x30 build/default/production/_ext/1014039709/sys_cache.o
 .text.SYS_CACHE_DisableICache
                0x00000000       0x30 build/default/production/_ext/1014039709/sys_cache.o
 .text.SYS_CACHE_EnableDCache
                0x00000000       0x30 build/default/production/_ext/1014039709/sys_cache.o
 .text.SYS_CACHE_DisableDCache
                0x00000000       0x30 build/default/production/_ext/1014039709/sys_cache.o
 .text.SYS_CACHE_CleanDCache
                0x00000000       0x30 build/default/production/_ext/1014039709/sys_cache.o
 .text.SYS_CACHE_InvalidateICache
                0x00000000       0x48 build/default/production/_ext/1014039709/sys_cache.o
 .text.SYS_CACHE_InvalidateDCache
                0x00000000       0x48 build/default/production/_ext/1014039709/sys_cache.o
 .text.SYS_CACHE_CleanInvalidateDCache
                0x00000000       0x48 build/default/production/_ext/1014039709/sys_cache.o
 .text.SYS_CACHE_CleanInvalidateDCache_by_Addr
                0x00000000       0x60 build/default/production/_ext/1014039709/sys_cache.o
 .text          0x00000000        0x0 build/default/production/_ext/14461671/sys_dma.o
 .data          0x00000000        0x0 build/default/production/_ext/14461671/sys_dma.o
 .bss           0x00000000        0x0 build/default/production/_ext/14461671/sys_dma.o
 .reginfo       0x00000000       0x18 build/default/production/_ext/14461671/sys_dma.o
 .text          0x00000000        0x0 build/default/production/_ext/411819097/ffunicode.o
 .data          0x00000000        0x0 build/default/production/_ext/411819097/ffunicode.o
 .bss           0x00000000        0x0 build/default/production/_ext/411819097/ffunicode.o
 .reginfo       0x00000000       0x18 build/default/production/_ext/411819097/ffunicode.o
 .text          0x00000000        0x0 build/default/production/_ext/411819097/ff.o
 .data          0x00000000        0x0 build/default/production/_ext/411819097/ff.o
 .bss           0x00000000        0x0 build/default/production/_ext/411819097/ff.o
 .reginfo       0x00000000       0x18 build/default/production/_ext/411819097/ff.o
 .text          0x00000000        0x0 build/default/production/_ext/565198302/diskio.o
 .data          0x00000000        0x0 build/default/production/_ext/565198302/diskio.o
 .bss           0x00000000        0x0 build/default/production/_ext/565198302/diskio.o
 .reginfo       0x00000000       0x18 build/default/production/_ext/565198302/diskio.o
 .text          0x00000000        0x0 build/default/production/_ext/1269487135/sys_fs_fat_interface.o
 .data          0x00000000        0x0 build/default/production/_ext/1269487135/sys_fs_fat_interface.o
 .bss           0x00000000        0x0 build/default/production/_ext/1269487135/sys_fs_fat_interface.o
 .reginfo       0x00000000       0x18 build/default/production/_ext/1269487135/sys_fs_fat_interface.o
 .text.FATFS_getfree
                0x00000000       0x50 build/default/production/_ext/1269487135/sys_fs_fat_interface.o
 .text          0x00000000        0x0 build/default/production/_ext/1269487135/sys_fs_media_manager.o
 .data          0x00000000        0x0 build/default/production/_ext/1269487135/sys_fs_media_manager.o
 .bss           0x00000000        0x0 build/default/production/_ext/1269487135/sys_fs_media_manager.o
 .reginfo       0x00000000       0x18 build/default/production/_ext/1269487135/sys_fs_media_manager.o
 .text.SYS_FS_MEDIA_MANAGER_DeRegister
                0x00000000       0x50 build/default/production/_ext/1269487135/sys_fs_media_manager.o
 .text.SYS_FS_MEDIA_MANAGER_Read
                0x00000000      0x158 build/default/production/_ext/1269487135/sys_fs_media_manager.o
 .text.SYS_FS_MEDIA_MANAGER_AddressGet
                0x00000000       0x9c build/default/production/_ext/1269487135/sys_fs_media_manager.o
 .text.SYS_FS_MEDIA_MANAGER_CommandStatusGet
                0x00000000       0xc4 build/default/production/_ext/1269487135/sys_fs_media_manager.o
 .text          0x00000000        0x0 build/default/production/_ext/1269487135/sys_fs.o
 .data          0x00000000        0x0 build/default/production/_ext/1269487135/sys_fs.o
 .bss           0x00000000        0x0 build/default/production/_ext/1269487135/sys_fs.o
 .reginfo       0x00000000       0x18 build/default/production/_ext/1269487135/sys_fs.o
 .text.SYS_FS_StringWildCardCompare
                0x00000000      0x17c build/default/production/_ext/1269487135/sys_fs.o
 .text.SYS_FS_FileNameGet
                0x00000000      0x110 build/default/production/_ext/1269487135/sys_fs.o
 .text.SYS_FS_FileSeek
                0x00000000      0x298 build/default/production/_ext/1269487135/sys_fs.o
 .text.SYS_FS_FileTell
                0x00000000      0x168 build/default/production/_ext/1269487135/sys_fs.o
 .text.SYS_FS_FileSize
                0x00000000      0x168 build/default/production/_ext/1269487135/sys_fs.o
 .text.SYS_FS_FileStat
                0x00000000      0x184 build/default/production/_ext/1269487135/sys_fs.o
 .text.SYS_FS_Error
                0x00000000       0x24 build/default/production/_ext/1269487135/sys_fs.o
 .text.SYS_FS_FileError
                0x00000000       0x74 build/default/production/_ext/1269487135/sys_fs.o
 .text.SYS_FS_DirOpen
                0x00000000      0x27c build/default/production/_ext/1269487135/sys_fs.o
 .text.SYS_FS_DirClose
                0x00000000      0x17c build/default/production/_ext/1269487135/sys_fs.o
 .text.SYS_FS_DirRead
                0x00000000      0x188 build/default/production/_ext/1269487135/sys_fs.o
 .text.SYS_FS_DirRewind
                0x00000000      0x178 build/default/production/_ext/1269487135/sys_fs.o
 .text.SYS_FS_DirSearch
                0x00000000      0x2b8 build/default/production/_ext/1269487135/sys_fs.o
 .text.SYS_FS_FileStringGet
                0x00000000      0x198 build/default/production/_ext/1269487135/sys_fs.o
 .text.SYS_FS_DirectoryChange
                0x00000000      0x170 build/default/production/_ext/1269487135/sys_fs.o
 .text.SYS_FS_CurrentWorkingDirectoryGet
                0x00000000      0x348 build/default/production/_ext/1269487135/sys_fs.o
 .text.SYS_FS_CurrentDriveGet
                0x00000000       0xc8 build/default/production/_ext/1269487135/sys_fs.o
 .text.SYS_FS_DriveLabelGet
                0x00000000      0x1a0 build/default/production/_ext/1269487135/sys_fs.o
 .text.SYS_FS_FileSync
                0x00000000      0x174 build/default/production/_ext/1269487135/sys_fs.o
 .text.SYS_FS_FileTruncate
                0x00000000      0x150 build/default/production/_ext/1269487135/sys_fs.o
 .text.SYS_FS_FileCharacterPut
                0x00000000      0x188 build/default/production/_ext/1269487135/sys_fs.o
 .text.SYS_FS_FileStringPut
                0x00000000      0x190 build/default/production/_ext/1269487135/sys_fs.o
 .text.SYS_FS_FilePrintf
                0x00000000      0x1a4 build/default/production/_ext/1269487135/sys_fs.o
 .text.SYS_FS_FileTestError
                0x00000000      0x14c build/default/production/_ext/1269487135/sys_fs.o
 .text.SYS_FS_FileDirectoryRemove
                0x00000000      0x170 build/default/production/_ext/1269487135/sys_fs.o
 .text.SYS_FS_FileDirectoryModeSet
                0x00000000      0x188 build/default/production/_ext/1269487135/sys_fs.o
 .text.SYS_FS_FileDirectoryTimeSet
                0x00000000      0x19c build/default/production/_ext/1269487135/sys_fs.o
 .text.SYS_FS_FileDirectoryRenameMove
                0x00000000      0x1dc build/default/production/_ext/1269487135/sys_fs.o
 .text.SYS_FS_DriveLabelSet
                0x00000000      0x1d0 build/default/production/_ext/1269487135/sys_fs.o
 .text.SYS_FS_DriveFormat
                0x00000000      0x158 build/default/production/_ext/1269487135/sys_fs.o
 .text.SYS_FS_DrivePartition
                0x00000000      0x15c build/default/production/_ext/1269487135/sys_fs.o
 .text.SYS_FS_DriveSectorGet
                0x00000000      0x1bc build/default/production/_ext/1269487135/sys_fs.o
 .text          0x00000000        0x0 build/default/production/_ext/1881668453/sys_int.o
 .data          0x00000000        0x0 build/default/production/_ext/1881668453/sys_int.o
 .bss           0x00000000        0x0 build/default/production/_ext/1881668453/sys_int.o
 .reginfo       0x00000000       0x18 build/default/production/_ext/1881668453/sys_int.o
 .text.SYS_INT_Enable
                0x00000000       0x30 build/default/production/_ext/1881668453/sys_int.o
 .text          0x00000000        0x0 build/default/production/_ext/101884895/sys_time.o
 .data          0x00000000        0x0 build/default/production/_ext/101884895/sys_time.o
 .bss           0x00000000        0x0 build/default/production/_ext/101884895/sys_time.o
 .reginfo       0x00000000       0x18 build/default/production/_ext/101884895/sys_time.o
 .text.SYS_TIME_GetTotalElapsedCount
                0x00000000      0x15c build/default/production/_ext/101884895/sys_time.o
 .text.SYS_TIME_Deinitialize
                0x00000000       0xa0 build/default/production/_ext/101884895/sys_time.o
 .text.SYS_TIME_Status
                0x00000000       0x54 build/default/production/_ext/101884895/sys_time.o
 .text.SYS_TIME_FrequencyGet
                0x00000000       0x2c build/default/production/_ext/101884895/sys_time.o
 .text.SYS_TIME_Counter64Get
                0x00000000       0xf0 build/default/production/_ext/101884895/sys_time.o
 .text.SYS_TIME_CounterGet
                0x00000000       0x38 build/default/production/_ext/101884895/sys_time.o
 .text.SYS_TIME_CounterSet
                0x00000000       0x74 build/default/production/_ext/101884895/sys_time.o
 .text.SYS_TIME_CountToUS
                0x00000000      0x128 build/default/production/_ext/101884895/sys_time.o
 .text.SYS_TIME_CountToMS
                0x00000000       0xfc build/default/production/_ext/101884895/sys_time.o
 .text.SYS_TIME_USToCount
                0x00000000       0x9c build/default/production/_ext/101884895/sys_time.o
 .text.SYS_TIME_TimerCreate
                0x00000000       0x7c build/default/production/_ext/101884895/sys_time.o
 .text.SYS_TIME_TimerReload
                0x00000000      0x180 build/default/production/_ext/101884895/sys_time.o
 .text.SYS_TIME_TimerStop
                0x00000000       0xcc build/default/production/_ext/101884895/sys_time.o
 .text.SYS_TIME_TimerCounterGet
                0x00000000       0xb4 build/default/production/_ext/101884895/sys_time.o
 .text.SYS_TIME_TimerPeriodHasExpired
                0x00000000       0x94 build/default/production/_ext/101884895/sys_time.o
 .text.SYS_TIME_DelayUS
                0x00000000       0xc0 build/default/production/_ext/101884895/sys_time.o
 .text.SYS_TIME_DelayMS
                0x00000000       0xc0 build/default/production/_ext/101884895/sys_time.o
 .text.SYS_TIME_DelayIsComplete
                0x00000000       0x5c build/default/production/_ext/101884895/sys_time.o
 .text.SYS_TIME_CallbackRegisterUS
                0x00000000       0xc0 build/default/production/_ext/101884895/sys_time.o
 .text          0x00000000        0x0 build/default/production/_ext/308758920/usb_device.o
 .data          0x00000000        0x0 build/default/production/_ext/308758920/usb_device.o
 .bss           0x00000000        0x0 build/default/production/_ext/308758920/usb_device.o
 .reginfo       0x00000000       0x18 build/default/production/_ext/308758920/usb_device.o
 .rodata.controlEndpointTx.controlEndpointTx
                0x00000000        0x1 build/default/production/_ext/308758920/usb_device.o
 .rodata.controlEndpointRx.controlEndpointRx
                0x00000000        0x1 build/default/production/_ext/308758920/usb_device.o
 .text.USB_DEVICE_EndpointIsEnabled
                0x00000000       0x88 build/default/production/_ext/308758920/usb_device.o
 .text.USB_DEVICE_EndpointStall
                0x00000000       0x74 build/default/production/_ext/308758920/usb_device.o
 .text.USB_DEVICE_EndpointStallClear
                0x00000000       0x74 build/default/production/_ext/308758920/usb_device.o
 .text.USB_DEVICE_EndpointIsStalled
                0x00000000       0x88 build/default/production/_ext/308758920/usb_device.o
 .text.USB_DEVICE_Status
                0x00000000       0x7c build/default/production/_ext/308758920/usb_device.o
 .text.USB_DEVICE_IsSuspended
                0x00000000       0x68 build/default/production/_ext/308758920/usb_device.o
 .text.USB_DEVICE_StateGet
                0x00000000       0x6c build/default/production/_ext/308758920/usb_device.o
 .text.USB_DEVICE_Deinitialize
                0x00000000       0x80 build/default/production/_ext/308758920/usb_device.o
 .text.USB_DEVICE_Close
                0x00000000       0x60 build/default/production/_ext/308758920/usb_device.o
 .text.USB_DEVICE_ClientStatusGet
                0x00000000       0x5c build/default/production/_ext/308758920/usb_device.o
 .text.USB_DEVICE_ActiveConfigurationGet
                0x00000000       0x5c build/default/production/_ext/308758920/usb_device.o
 .text.USB_DEVICE_ActiveSpeedGet
                0x00000000       0x64 build/default/production/_ext/308758920/usb_device.o
 .text.USB_DEVICE_PowerStateSet
                0x00000000       0x74 build/default/production/_ext/308758920/usb_device.o
 .text.USB_DEVICE_RemoteWakeupStatusGet
                0x00000000       0x5c build/default/production/_ext/308758920/usb_device.o
 .text.USB_DEVICE_RemoteWakeupStop
                0x00000000       0x70 build/default/production/_ext/308758920/usb_device.o
 .text.USB_DEVICE_RemoteWakeupStart
                0x00000000       0x70 build/default/production/_ext/308758920/usb_device.o
 .text.USB_DEVICE_IRPCancel
                0x00000000       0x88 build/default/production/_ext/308758920/usb_device.o
 .text.F_USB_DEVICE_EndpointMutexCreateFunction
                0x00000000       0x88 build/default/production/_ext/308758920/usb_device.o
 .text.F_USB_DEVICE_EndpointMutexDeleteFunction
                0x00000000       0x5c build/default/production/_ext/308758920/usb_device.o
 .text.F_USB_DEVICE_GetStringDescriptorRequestProcessAdvanced
                0x00000000      0x1a0 build/default/production/_ext/308758920/usb_device.o
 .text          0x00000000        0x0 build/default/production/_ext/308758920/usb_device_cdc_acm.o
 .data          0x00000000        0x0 build/default/production/_ext/308758920/usb_device_cdc_acm.o
 .bss           0x00000000        0x0 build/default/production/_ext/308758920/usb_device_cdc_acm.o
 .reginfo       0x00000000       0x18 build/default/production/_ext/308758920/usb_device_cdc_acm.o
 .text          0x00000000        0x0 build/default/production/_ext/308758920/usb_device_cdc.o
 .data          0x00000000        0x0 build/default/production/_ext/308758920/usb_device_cdc.o
 .bss           0x00000000        0x0 build/default/production/_ext/308758920/usb_device_cdc.o
 .reginfo       0x00000000       0x18 build/default/production/_ext/308758920/usb_device_cdc.o
 .text.F_USB_DEVICE_CDC_SerialStateSendIRPCallback
                0x00000000      0x134 build/default/production/_ext/308758920/usb_device_cdc.o
 .text.USB_DEVICE_CDC_ReadPacketSizeGet
                0x00000000       0x5c build/default/production/_ext/308758920/usb_device_cdc.o
 .text.USB_DEVICE_CDC_WritePacketSizeGet
                0x00000000       0x5c build/default/production/_ext/308758920/usb_device_cdc.o
 .text.USB_DEVICE_CDC_SerialStateNotificationSend
                0x00000000      0x388 build/default/production/_ext/308758920/usb_device_cdc.o
 .text          0x00000000        0x0 build/default/production/_ext/1171490990/freertos_hooks.o
 .data          0x00000000        0x0 build/default/production/_ext/1171490990/freertos_hooks.o
 .bss           0x00000000        0x0 build/default/production/_ext/1171490990/freertos_hooks.o
 .reginfo       0x00000000       0x18 build/default/production/_ext/1171490990/freertos_hooks.o
 .text.vApplicationIdleHook
                0x00000000       0x20 build/default/production/_ext/1171490990/freertos_hooks.o
 .text.vApplicationTickHook
                0x00000000       0x20 build/default/production/_ext/1171490990/freertos_hooks.o
 .text          0x00000000        0x0 build/default/production/_ext/1171490990/initialization.o
 .data          0x00000000        0x0 build/default/production/_ext/1171490990/initialization.o
 .bss           0x00000000        0x0 build/default/production/_ext/1171490990/initialization.o
 .reginfo       0x00000000       0x18 build/default/production/_ext/1171490990/initialization.o
 .text          0x00000000        0x0 build/default/production/_ext/1171490990/interrupts.o
 .data          0x00000000        0x0 build/default/production/_ext/1171490990/interrupts.o
 .bss           0x00000000        0x0 build/default/production/_ext/1171490990/interrupts.o
 .reginfo       0x00000000       0x18 build/default/production/_ext/1171490990/interrupts.o
 .text          0x00000000        0x0 build/default/production/_ext/1171490990/interrupts_a.o
 .data          0x00000000        0x0 build/default/production/_ext/1171490990/interrupts_a.o
 .bss           0x00000000        0x0 build/default/production/_ext/1171490990/interrupts_a.o
 .reginfo       0x00000000       0x18 build/default/production/_ext/1171490990/interrupts_a.o
 .text          0x00000000        0x0 build/default/production/_ext/1171490990/exceptions.o
 .data          0x00000000        0x0 build/default/production/_ext/1171490990/exceptions.o
 .bss           0x00000000        0x0 build/default/production/_ext/1171490990/exceptions.o
 .reginfo       0x00000000       0x18 build/default/production/_ext/1171490990/exceptions.o
 .text          0x00000000        0x0 build/default/production/_ext/1171490990/tasks.o
 .data          0x00000000        0x0 build/default/production/_ext/1171490990/tasks.o
 .bss           0x00000000        0x0 build/default/production/_ext/1171490990/tasks.o
 .reginfo       0x00000000       0x18 build/default/production/_ext/1171490990/tasks.o
 .text          0x00000000        0x0 build/default/production/_ext/1171490990/usb_device_init_data.o
 .data          0x00000000        0x0 build/default/production/_ext/1171490990/usb_device_init_data.o
 .bss           0x00000000        0x0 build/default/production/_ext/1171490990/usb_device_init_data.o
 .reginfo       0x00000000       0x18 build/default/production/_ext/1171490990/usb_device_init_data.o
 .text          0x00000000        0x0 build/default/production/_ext/1665200909/heap_4.o
 .data          0x00000000        0x0 build/default/production/_ext/1665200909/heap_4.o
 .bss           0x00000000        0x0 build/default/production/_ext/1665200909/heap_4.o
 .reginfo       0x00000000       0x18 build/default/production/_ext/1665200909/heap_4.o
 .rodata.xHeapStructSize.xHeapStructSize
                0x00000000        0x4 build/default/production/_ext/1665200909/heap_4.o
 .text.xPortGetFreeHeapSize
                0x00000000       0x24 build/default/production/_ext/1665200909/heap_4.o
 .text.xPortGetMinimumEverFreeHeapSize
                0x00000000       0x24 build/default/production/_ext/1665200909/heap_4.o
 .text.vPortInitialiseBlocks
                0x00000000       0x20 build/default/production/_ext/1665200909/heap_4.o
 .text.pvPortCalloc
                0x00000000       0xcc build/default/production/_ext/1665200909/heap_4.o
 .text.vPortGetHeapStats
                0x00000000      0x13c build/default/production/_ext/1665200909/heap_4.o
 .text          0x00000000        0x0 build/default/production/_ext/951553246/port.o
 .data          0x00000000        0x0 build/default/production/_ext/951553246/port.o
 .bss           0x00000000        0x0 build/default/production/_ext/951553246/port.o
 .reginfo       0x00000000       0x18 build/default/production/_ext/951553246/port.o
 .text.vPortEndScheduler
                0x00000000       0x4c build/default/production/_ext/951553246/port.o
 .text.vPortTaskUsesFPU
                0x00000000       0x4c build/default/production/_ext/951553246/port.o
 .data          0x00000000        0x0 build/default/production/_ext/951553246/port_asm.o
 .bss           0x00000000        0x0 build/default/production/_ext/951553246/port_asm.o
 .reginfo       0x00000000       0x18 build/default/production/_ext/951553246/port_asm.o
 .text          0x00000000        0x0 build/default/production/_ext/404212886/FreeRTOS_tasks.o
 .data          0x00000000        0x0 build/default/production/_ext/404212886/FreeRTOS_tasks.o
 .bss           0x00000000        0x0 build/default/production/_ext/404212886/FreeRTOS_tasks.o
 .reginfo       0x00000000       0x18 build/default/production/_ext/404212886/FreeRTOS_tasks.o
 .text.vTaskDelete
                0x00000000      0x1c0 build/default/production/_ext/404212886/FreeRTOS_tasks.o
 .text.xTaskDelayUntil
                0x00000000      0x1b0 build/default/production/_ext/404212886/FreeRTOS_tasks.o
 .text.uxTaskPriorityGet
                0x00000000       0x6c build/default/production/_ext/404212886/FreeRTOS_tasks.o
 .text.uxTaskPriorityGetFromISR
                0x00000000       0x74 build/default/production/_ext/404212886/FreeRTOS_tasks.o
 .text.vTaskPrioritySet
                0x00000000      0x308 build/default/production/_ext/404212886/FreeRTOS_tasks.o
 .text.vTaskSuspend
                0x00000000      0x208 build/default/production/_ext/404212886/FreeRTOS_tasks.o
 .text.prvTaskIsTaskSuspended
                0x00000000       0xa4 build/default/production/_ext/404212886/FreeRTOS_tasks.o
 .text.vTaskResume
                0x00000000      0x1dc build/default/production/_ext/404212886/FreeRTOS_tasks.o
 .text.vTaskEndScheduler
                0x00000000       0x78 build/default/production/_ext/404212886/FreeRTOS_tasks.o
 .text.xTaskGetTickCount
                0x00000000       0x2c build/default/production/_ext/404212886/FreeRTOS_tasks.o
 .text.xTaskGetTickCountFromISR
                0x00000000       0x30 build/default/production/_ext/404212886/FreeRTOS_tasks.o
 .text.pcTaskGetName
                0x00000000       0x74 build/default/production/_ext/404212886/FreeRTOS_tasks.o
 .text.xTaskCatchUpTicks
                0x00000000       0x84 build/default/production/_ext/404212886/FreeRTOS_tasks.o
 .text.vTaskPlaceOnUnorderedEventList
                0x00000000      0x104 build/default/production/_ext/404212886/FreeRTOS_tasks.o
 .text.vTaskRemoveFromUnorderedEventList
                0x00000000      0x298 build/default/production/_ext/404212886/FreeRTOS_tasks.o
 .text.vTaskSetTimeOutState
                0x00000000       0x74 build/default/production/_ext/404212886/FreeRTOS_tasks.o
 .text.prvTaskCheckFreeStackSpace
                0x00000000       0x70 build/default/production/_ext/404212886/FreeRTOS_tasks.o
 .text.uxTaskGetStackHighWaterMark
                0x00000000       0x6c build/default/production/_ext/404212886/FreeRTOS_tasks.o
 .text.xTaskGetCurrentTaskHandle
                0x00000000       0x2c build/default/production/_ext/404212886/FreeRTOS_tasks.o
 .text.uxTaskResetEventItemValue
                0x00000000       0x48 build/default/production/_ext/404212886/FreeRTOS_tasks.o
 .text.ulTaskGenericNotifyTake
                0x00000000      0x16c build/default/production/_ext/404212886/FreeRTOS_tasks.o
 .text.xTaskGenericNotifyWait
                0x00000000      0x1cc build/default/production/_ext/404212886/FreeRTOS_tasks.o
 .text.xTaskGenericNotify
                0x00000000      0x428 build/default/production/_ext/404212886/FreeRTOS_tasks.o
 .text.xTaskGenericNotifyFromISR
                0x00000000      0x4b8 build/default/production/_ext/404212886/FreeRTOS_tasks.o
 .text.vTaskGenericNotifyGiveFromISR
                0x00000000      0x358 build/default/production/_ext/404212886/FreeRTOS_tasks.o
 .text.xTaskGenericNotifyStateClear
                0x00000000       0xc8 build/default/production/_ext/404212886/FreeRTOS_tasks.o
 .text.ulTaskGenericNotifyValueClear
                0x00000000       0xc0 build/default/production/_ext/404212886/FreeRTOS_tasks.o
 .text          0x00000000        0x0 build/default/production/_ext/404212886/list.o
 .data          0x00000000        0x0 build/default/production/_ext/404212886/list.o
 .bss           0x00000000        0x0 build/default/production/_ext/404212886/list.o
 .reginfo       0x00000000       0x18 build/default/production/_ext/404212886/list.o
 .text.vListInsertEnd
                0x00000000       0x8c build/default/production/_ext/404212886/list.o
 .text          0x00000000        0x0 build/default/production/_ext/404212886/queue.o
 .data          0x00000000        0x0 build/default/production/_ext/404212886/queue.o
 .bss           0x00000000        0x0 build/default/production/_ext/404212886/queue.o
 .reginfo       0x00000000       0x18 build/default/production/_ext/404212886/queue.o
 .text.xQueuePeek
                0x00000000      0x328 build/default/production/_ext/404212886/queue.o
 .text.xQueueReceiveFromISR
                0x00000000      0x1d0 build/default/production/_ext/404212886/queue.o
 .text.xQueuePeekFromISR
                0x00000000      0x12c build/default/production/_ext/404212886/queue.o
 .text.uxQueueMessagesWaiting
                0x00000000       0x6c build/default/production/_ext/404212886/queue.o
 .text.uxQueueSpacesAvailable
                0x00000000       0x80 build/default/production/_ext/404212886/queue.o
 .text.uxQueueMessagesWaitingFromISR
                0x00000000       0x64 build/default/production/_ext/404212886/queue.o
 .text.vQueueDelete
                0x00000000       0x60 build/default/production/_ext/404212886/queue.o
 .text.xQueueIsQueueEmptyFromISR
                0x00000000       0x7c build/default/production/_ext/404212886/queue.o
 .text.xQueueIsQueueFullFromISR
                0x00000000       0x84 build/default/production/_ext/404212886/queue.o
 .text          0x00000000        0x0 build/default/production/_ext/404212886/croutine.o
 .data          0x00000000        0x0 build/default/production/_ext/404212886/croutine.o
 .bss           0x00000000        0x0 build/default/production/_ext/404212886/croutine.o
 .reginfo       0x00000000       0x18 build/default/production/_ext/404212886/croutine.o
 .text          0x00000000        0x0 build/default/production/_ext/404212886/event_groups.o
 .data          0x00000000        0x0 build/default/production/_ext/404212886/event_groups.o
 .bss           0x00000000        0x0 build/default/production/_ext/404212886/event_groups.o
 .reginfo       0x00000000       0x18 build/default/production/_ext/404212886/event_groups.o
 .text.xEventGroupCreate
                0x00000000       0x64 build/default/production/_ext/404212886/event_groups.o
 .rodata        0x00000000       0x38 build/default/production/_ext/404212886/event_groups.o
 .text.xEventGroupSync
                0x00000000      0x26c build/default/production/_ext/404212886/event_groups.o
 .text.xEventGroupWaitBits
                0x00000000      0x2cc build/default/production/_ext/404212886/event_groups.o
 .text.xEventGroupClearBits
                0x00000000       0xb8 build/default/production/_ext/404212886/event_groups.o
 .text.xEventGroupGetBitsFromISR
                0x00000000       0x5c build/default/production/_ext/404212886/event_groups.o
 .text.xEventGroupSetBits
                0x00000000      0x1f8 build/default/production/_ext/404212886/event_groups.o
 .text.vEventGroupDelete
                0x00000000       0xd8 build/default/production/_ext/404212886/event_groups.o
 .text.vEventGroupSetBitsCallback
                0x00000000       0x40 build/default/production/_ext/404212886/event_groups.o
 .text.vEventGroupClearBitsCallback
                0x00000000       0x40 build/default/production/_ext/404212886/event_groups.o
 .text.prvTestWaitCondition
                0x00000000       0x84 build/default/production/_ext/404212886/event_groups.o
 .text          0x00000000        0x0 build/default/production/_ext/404212886/stream_buffer.o
 .data          0x00000000        0x0 build/default/production/_ext/404212886/stream_buffer.o
 .bss           0x00000000        0x0 build/default/production/_ext/404212886/stream_buffer.o
 .reginfo       0x00000000       0x18 build/default/production/_ext/404212886/stream_buffer.o
 .rodata        0x00000000       0x38 build/default/production/_ext/404212886/stream_buffer.o
 .text.xStreamBufferGenericCreate
                0x00000000      0x16c build/default/production/_ext/404212886/stream_buffer.o
 .text.vStreamBufferDelete
                0x00000000       0x90 build/default/production/_ext/404212886/stream_buffer.o
 .text.xStreamBufferReset
                0x00000000       0xe4 build/default/production/_ext/404212886/stream_buffer.o
 .text.xStreamBufferSetTriggerLevel
                0x00000000       0xa8 build/default/production/_ext/404212886/stream_buffer.o
 .text.xStreamBufferSpacesAvailable
                0x00000000       0xdc build/default/production/_ext/404212886/stream_buffer.o
 .text.xStreamBufferBytesAvailable
                0x00000000       0x68 build/default/production/_ext/404212886/stream_buffer.o
 .text.xStreamBufferSend
                0x00000000      0x2d8 build/default/production/_ext/404212886/stream_buffer.o
 .text.xStreamBufferSendFromISR
                0x00000000      0x16c build/default/production/_ext/404212886/stream_buffer.o
 .text.prvWriteMessageToBuffer
                0x00000000      0x118 build/default/production/_ext/404212886/stream_buffer.o
 .text.xStreamBufferReceive
                0x00000000      0x224 build/default/production/_ext/404212886/stream_buffer.o
 .text.xStreamBufferNextMessageLengthBytes
                0x00000000       0xf0 build/default/production/_ext/404212886/stream_buffer.o
 .text.xStreamBufferReceiveFromISR
                0x00000000      0x158 build/default/production/_ext/404212886/stream_buffer.o
 .text.prvReadMessageFromBuffer
                0x00000000      0x100 build/default/production/_ext/404212886/stream_buffer.o
 .text.xStreamBufferIsEmpty
                0x00000000       0x8c build/default/production/_ext/404212886/stream_buffer.o
 .text.xStreamBufferIsFull
                0x00000000       0xb4 build/default/production/_ext/404212886/stream_buffer.o
 .text.xStreamBufferSendCompletedFromISR
                0x00000000       0xcc build/default/production/_ext/404212886/stream_buffer.o
 .text.xStreamBufferReceiveCompletedFromISR
                0x00000000       0xcc build/default/production/_ext/404212886/stream_buffer.o
 .text.prvWriteBytesToBuffer
                0x00000000      0x188 build/default/production/_ext/404212886/stream_buffer.o
 .text.prvReadBytesFromBuffer
                0x00000000      0x17c build/default/production/_ext/404212886/stream_buffer.o
 .text.prvBytesInBuffer
                0x00000000       0x80 build/default/production/_ext/404212886/stream_buffer.o
 .text.prvInitialiseNewStreamBuffer
                0x00000000       0xbc build/default/production/_ext/404212886/stream_buffer.o
 .text          0x00000000        0x0 build/default/production/_ext/404212886/timers.o
 .data          0x00000000        0x0 build/default/production/_ext/404212886/timers.o
 .bss           0x00000000        0x0 build/default/production/_ext/404212886/timers.o
 .reginfo       0x00000000       0x18 build/default/production/_ext/404212886/timers.o
 .text          0x00000000        0x0 build/default/production/_ext/1360937237/app_freertos.o
 .data          0x00000000        0x0 build/default/production/_ext/1360937237/app_freertos.o
 .bss           0x00000000        0x0 build/default/production/_ext/1360937237/app_freertos.o
 .reginfo       0x00000000       0x18 build/default/production/_ext/1360937237/app_freertos.o
 .text          0x00000000        0x0 build/default/production/_ext/1360937237/main.o
 .data          0x00000000        0x0 build/default/production/_ext/1360937237/main.o
 .bss           0x00000000        0x0 build/default/production/_ext/1360937237/main.o
 .reginfo       0x00000000       0x18 build/default/production/_ext/1360937237/main.o
 .text          0x00000000        0x0 build/default/production/_ext/1865161661/plib_dmac.o
 .data          0x00000000        0x0 build/default/production/_ext/1865161661/plib_dmac.o
 .bss           0x00000000        0x0 build/default/production/_ext/1865161661/plib_dmac.o
 .reginfo       0x00000000       0x18 build/default/production/_ext/1865161661/plib_dmac.o
 .bss.gCRCSetup.gCRCSetup
                0x00000000       0x14 build/default/production/_ext/1865161661/plib_dmac.o
 .text.DMAC_BitReverse
                0x00000000       0x90 build/default/production/_ext/1865161661/plib_dmac.o
 .text.DMAC_ChainTransferSetup
                0x00000000      0x190 build/default/production/_ext/1865161661/plib_dmac.o
 .text.DMAC_ChannelPatternMatchSetup
                0x00000000       0xc8 build/default/production/_ext/1865161661/plib_dmac.o
 .text.DMAC_ChannelPatternMatchDisable
                0x00000000       0x50 build/default/production/_ext/1865161661/plib_dmac.o
 .text.DMAC_ChannelDisable
                0x00000000       0x78 build/default/production/_ext/1865161661/plib_dmac.o
 .text.DMAC_ChannelIsBusy
                0x00000000       0x94 build/default/production/_ext/1865161661/plib_dmac.o
 .text.DMAC_ChannelTransferStatusGet
                0x00000000       0x98 build/default/production/_ext/1865161661/plib_dmac.o
 .text.DMAC_ChannelCRCSetup
                0x00000000      0x140 build/default/production/_ext/1865161661/plib_dmac.o
 .text.DMAC_CRCDisable
                0x00000000       0x2c build/default/production/_ext/1865161661/plib_dmac.o
 .text.DMAC_CRCRead
                0x00000000       0x88 build/default/production/_ext/1865161661/plib_dmac.o
 .text          0x00000000        0x0 c:/program files/microchip/xc32/v2.50/bin/bin/../../lib/gcc/pic32mx/4.8.3/../../../../pic32mx/lib/./proc/32MZ2048EFM144\vector_offset_init.o
 .data          0x00000000        0x0 c:/program files/microchip/xc32/v2.50/bin/bin/../../lib/gcc/pic32mx/4.8.3/../../../../pic32mx/lib/./proc/32MZ2048EFM144\vector_offset_init.o
 .bss           0x00000000        0x0 c:/program files/microchip/xc32/v2.50/bin/bin/../../lib/gcc/pic32mx/4.8.3/../../../../pic32mx/lib/./proc/32MZ2048EFM144\vector_offset_init.o
 .reginfo       0x00000000       0x18 c:/program files/microchip/xc32/v2.50/bin/bin/../../lib/gcc/pic32mx/4.8.3/../../../../pic32mx/lib/./proc/32MZ2048EFM144\vector_offset_init.o
 .text          0x00000000        0x0 C:\Users\asus3\AppData\Local\Temp\ccX7AMLn.o
 .data          0x00000000        0x0 C:\Users\asus3\AppData\Local\Temp\ccX7AMLn.o
 .bss           0x00000000        0x0 C:\Users\asus3\AppData\Local\Temp\ccX7AMLn.o
 .reginfo       0x00000000       0x18 C:\Users\asus3\AppData\Local\Temp\ccX7AMLn.o
 .text          0x00000000        0x0 C:\Users\asus3\AppData\Local\Temp\ccVJtIRV.o
 .data          0x00000000        0x0 C:\Users\asus3\AppData\Local\Temp\ccVJtIRV.o
 .bss           0x00000000        0x0 C:\Users\asus3\AppData\Local\Temp\ccVJtIRV.o
 .reginfo       0x00000000       0x18 C:\Users\asus3\AppData\Local\Temp\ccVJtIRV.o
 .text          0x00000000        0x0 C:\Users\asus3\AppData\Local\Temp\ccDVWfLL.o
 .data          0x00000000        0x0 C:\Users\asus3\AppData\Local\Temp\ccDVWfLL.o
 .bss           0x00000000        0x0 C:\Users\asus3\AppData\Local\Temp\ccDVWfLL.o
 .reginfo       0x00000000       0x18 C:\Users\asus3\AppData\Local\Temp\ccDVWfLL.o
 .discard       0x00000000        0x4 C:\Users\asus3\AppData\Local\Temp\ccDVWfLL.o
 .text          0x00000000        0x0 c:/program files/microchip/xc32/v2.50/bin/bin/../../lib/gcc/pic32mx/4.8.3/../../../../pic32mx/lib/./proc/32MZ2048EFM144\default_isr_vectors.o
 .data          0x00000000        0x0 c:/program files/microchip/xc32/v2.50/bin/bin/../../lib/gcc/pic32mx/4.8.3/../../../../pic32mx/lib/./proc/32MZ2048EFM144\default_isr_vectors.o
 .bss           0x00000000        0x0 c:/program files/microchip/xc32/v2.50/bin/bin/../../lib/gcc/pic32mx/4.8.3/../../../../pic32mx/lib/./proc/32MZ2048EFM144\default_isr_vectors.o
 .reginfo       0x00000000       0x18 c:/program files/microchip/xc32/v2.50/bin/bin/../../lib/gcc/pic32mx/4.8.3/../../../../pic32mx/lib/./proc/32MZ2048EFM144\default_isr_vectors.o
 .discard       0x00000000        0x4 c:/program files/microchip/xc32/v2.50/bin/bin/../../lib/gcc/pic32mx/4.8.3/../../../../pic32mx/lib/./proc/32MZ2048EFM144\default_isr_vectors.o
 .data          0x00000000        0x0 c:/program files/microchip/xc32/v2.50/bin/bin/../../lib/gcc/pic32mx/4.8.3/../../../../pic32mx/lib/fpu64\pic32_software_reset.o
 .bss           0x00000000        0x0 c:/program files/microchip/xc32/v2.50/bin/bin/../../lib/gcc/pic32mx/4.8.3/../../../../pic32mx/lib/fpu64\pic32_software_reset.o
 .reginfo       0x00000000       0x18 c:/program files/microchip/xc32/v2.50/bin/bin/../../lib/gcc/pic32mx/4.8.3/../../../../pic32mx/lib/fpu64\pic32_software_reset.o
 .data          0x00000000        0x0 c:/program files/microchip/xc32/v2.50/bin/bin/../../lib/gcc/pic32mx/4.8.3/fpu64\libgcc.a(_udivdi3.o)
 .bss           0x00000000        0x0 c:/program files/microchip/xc32/v2.50/bin/bin/../../lib/gcc/pic32mx/4.8.3/fpu64\libgcc.a(_udivdi3.o)
 .reginfo       0x00000000       0x18 c:/program files/microchip/xc32/v2.50/bin/bin/../../lib/gcc/pic32mx/4.8.3/fpu64\libgcc.a(_udivdi3.o)
 .data          0x00000000        0x0 c:/program files/microchip/xc32/v2.50/bin/bin/../../lib/gcc/pic32mx/4.8.3/../../../../pic32mx/lib/fpu64\libpic32.a(memcmp.o)
 .bss           0x00000000        0x0 c:/program files/microchip/xc32/v2.50/bin/bin/../../lib/gcc/pic32mx/4.8.3/../../../../pic32mx/lib/fpu64\libpic32.a(memcmp.o)
 .reginfo       0x00000000       0x18 c:/program files/microchip/xc32/v2.50/bin/bin/../../lib/gcc/pic32mx/4.8.3/../../../../pic32mx/lib/fpu64\libpic32.a(memcmp.o)
 .data          0x00000000        0x0 c:/program files/microchip/xc32/v2.50/bin/bin/../../lib/gcc/pic32mx/4.8.3/../../../../pic32mx/lib/fpu64\libpic32.a(memcpy.o)
 .bss           0x00000000        0x0 c:/program files/microchip/xc32/v2.50/bin/bin/../../lib/gcc/pic32mx/4.8.3/../../../../pic32mx/lib/fpu64\libpic32.a(memcpy.o)
 .reginfo       0x00000000       0x18 c:/program files/microchip/xc32/v2.50/bin/bin/../../lib/gcc/pic32mx/4.8.3/../../../../pic32mx/lib/fpu64\libpic32.a(memcpy.o)
 .data          0x00000000        0x0 c:/program files/microchip/xc32/v2.50/bin/bin/../../lib/gcc/pic32mx/4.8.3/../../../../pic32mx/lib/fpu64\libpic32.a(memset.o)
 .bss           0x00000000        0x0 c:/program files/microchip/xc32/v2.50/bin/bin/../../lib/gcc/pic32mx/4.8.3/../../../../pic32mx/lib/fpu64\libpic32.a(memset.o)
 .reginfo       0x00000000       0x18 c:/program files/microchip/xc32/v2.50/bin/bin/../../lib/gcc/pic32mx/4.8.3/../../../../pic32mx/lib/fpu64\libpic32.a(memset.o)
 .data          0x00000000        0x0 c:/program files/microchip/xc32/v2.50/bin/bin/../../lib/gcc/pic32mx/4.8.3/../../../../pic32mx/lib/fpu64\libpic32.a(strcmp.o)
 .bss           0x00000000        0x0 c:/program files/microchip/xc32/v2.50/bin/bin/../../lib/gcc/pic32mx/4.8.3/../../../../pic32mx/lib/fpu64\libpic32.a(strcmp.o)
 .reginfo       0x00000000       0x18 c:/program files/microchip/xc32/v2.50/bin/bin/../../lib/gcc/pic32mx/4.8.3/../../../../pic32mx/lib/fpu64\libpic32.a(strcmp.o)
 .text          0x00000000      0x1a0 c:/program files/microchip/xc32/v2.50/bin/bin/../../lib/gcc/pic32mx/4.8.3/../../../../pic32mx/lib/fpu64\libpic32.a(strcpy.o)
 .data          0x00000000        0x0 c:/program files/microchip/xc32/v2.50/bin/bin/../../lib/gcc/pic32mx/4.8.3/../../../../pic32mx/lib/fpu64\libpic32.a(strcpy.o)
 .bss           0x00000000        0x0 c:/program files/microchip/xc32/v2.50/bin/bin/../../lib/gcc/pic32mx/4.8.3/../../../../pic32mx/lib/fpu64\libpic32.a(strcpy.o)
 .reginfo       0x00000000       0x18 c:/program files/microchip/xc32/v2.50/bin/bin/../../lib/gcc/pic32mx/4.8.3/../../../../pic32mx/lib/fpu64\libpic32.a(strcpy.o)
 .comment       0x00000000       0x1a c:/program files/microchip/xc32/v2.50/bin/bin/../../lib/gcc/pic32mx/4.8.3/../../../../pic32mx/lib/fpu64\libpic32.a(strcpy.o)
 .data          0x00000000        0x0 c:/program files/microchip/xc32/v2.50/bin/bin/../../lib/gcc/pic32mx/4.8.3/../../../../pic32mx/lib/fpu64\libpic32.a(strlen.o)
 .bss           0x00000000        0x0 c:/program files/microchip/xc32/v2.50/bin/bin/../../lib/gcc/pic32mx/4.8.3/../../../../pic32mx/lib/fpu64\libpic32.a(strlen.o)
 .reginfo       0x00000000       0x18 c:/program files/microchip/xc32/v2.50/bin/bin/../../lib/gcc/pic32mx/4.8.3/../../../../pic32mx/lib/fpu64\libpic32.a(strlen.o)
 .text          0x00000000        0x0 c:/program files/microchip/xc32/v2.50/bin/bin/../../lib/gcc/pic32mx/4.8.3/../../../../pic32mx/lib/fpu64\libpic32.a(default-on-reset.o)
 .data          0x00000000        0x0 c:/program files/microchip/xc32/v2.50/bin/bin/../../lib/gcc/pic32mx/4.8.3/../../../../pic32mx/lib/fpu64\libpic32.a(default-on-reset.o)
 .bss           0x00000000        0x0 c:/program files/microchip/xc32/v2.50/bin/bin/../../lib/gcc/pic32mx/4.8.3/../../../../pic32mx/lib/fpu64\libpic32.a(default-on-reset.o)
 .reginfo       0x00000000       0x18 c:/program files/microchip/xc32/v2.50/bin/bin/../../lib/gcc/pic32mx/4.8.3/../../../../pic32mx/lib/fpu64\libpic32.a(default-on-reset.o)
 .text          0x00000000        0x0 c:/program files/microchip/xc32/v2.50/bin/bin/../../lib/gcc/pic32mx/4.8.3/../../../../pic32mx/lib/fpu64\libpic32.a(default-on-bootstrap.o)
 .data          0x00000000        0x0 c:/program files/microchip/xc32/v2.50/bin/bin/../../lib/gcc/pic32mx/4.8.3/../../../../pic32mx/lib/fpu64\libpic32.a(default-on-bootstrap.o)
 .bss           0x00000000        0x0 c:/program files/microchip/xc32/v2.50/bin/bin/../../lib/gcc/pic32mx/4.8.3/../../../../pic32mx/lib/fpu64\libpic32.a(default-on-bootstrap.o)
 .reginfo       0x00000000       0x18 c:/program files/microchip/xc32/v2.50/bin/bin/../../lib/gcc/pic32mx/4.8.3/../../../../pic32mx/lib/fpu64\libpic32.a(default-on-bootstrap.o)
 .data          0x00000000        0x0 c:/program files/microchip/xc32/v2.50/bin/bin/../../lib/gcc/pic32mx/4.8.3/../../../../pic32mx/lib/fpu64\libpic32.a(default-nmi-handler.o)
 .bss           0x00000000        0x0 c:/program files/microchip/xc32/v2.50/bin/bin/../../lib/gcc/pic32mx/4.8.3/../../../../pic32mx/lib/fpu64\libpic32.a(default-nmi-handler.o)
 .reginfo       0x00000000       0x18 c:/program files/microchip/xc32/v2.50/bin/bin/../../lib/gcc/pic32mx/4.8.3/../../../../pic32mx/lib/fpu64\libpic32.a(default-nmi-handler.o)
 .data          0x00000000        0x0 c:/program files/microchip/xc32/v2.50/bin/bin/../../lib/gcc/pic32mx/4.8.3/../../../../pic32mx/lib/fpu64\libpic32.a(pic32_data_init.o)
 .bss           0x00000000        0x0 c:/program files/microchip/xc32/v2.50/bin/bin/../../lib/gcc/pic32mx/4.8.3/../../../../pic32mx/lib/fpu64\libpic32.a(pic32_data_init.o)
 .reginfo       0x00000000       0x18 c:/program files/microchip/xc32/v2.50/bin/bin/../../lib/gcc/pic32mx/4.8.3/../../../../pic32mx/lib/fpu64\libpic32.a(pic32_data_init.o)
 .text          0x00000000        0x0 c:/program files/microchip/xc32/v2.50/bin/bin/../../lib/gcc/pic32mx/4.8.3/../../../../pic32mx/lib/fpu64\libpic32.a(pic32_init_cache.o)
 .data          0x00000000        0x0 c:/program files/microchip/xc32/v2.50/bin/bin/../../lib/gcc/pic32mx/4.8.3/../../../../pic32mx/lib/fpu64\libpic32.a(pic32_init_cache.o)
 .bss           0x00000000        0x0 c:/program files/microchip/xc32/v2.50/bin/bin/../../lib/gcc/pic32mx/4.8.3/../../../../pic32mx/lib/fpu64\libpic32.a(pic32_init_cache.o)
 .reginfo       0x00000000       0x18 c:/program files/microchip/xc32/v2.50/bin/bin/../../lib/gcc/pic32mx/4.8.3/../../../../pic32mx/lib/fpu64\libpic32.a(pic32_init_cache.o)
 .cache_init.pic32_size_cache
                0x00000000       0x58 c:/program files/microchip/xc32/v2.50/bin/bin/../../lib/gcc/pic32mx/4.8.3/../../../../pic32mx/lib/fpu64\libpic32.a(pic32_init_cache.o)
 .text          0x00000000        0x0 c:/program files/microchip/xc32/v2.50/bin/bin/../../lib/gcc/pic32mx/4.8.3/../../../../pic32mx/lib/fpu64\libpic32.a(pic32_init_tlb_ebi_sqi.o)
 .data          0x00000000        0x0 c:/program files/microchip/xc32/v2.50/bin/bin/../../lib/gcc/pic32mx/4.8.3/../../../../pic32mx/lib/fpu64\libpic32.a(pic32_init_tlb_ebi_sqi.o)
 .bss           0x00000000        0x0 c:/program files/microchip/xc32/v2.50/bin/bin/../../lib/gcc/pic32mx/4.8.3/../../../../pic32mx/lib/fpu64\libpic32.a(pic32_init_tlb_ebi_sqi.o)
 .reginfo       0x00000000       0x18 c:/program files/microchip/xc32/v2.50/bin/bin/../../lib/gcc/pic32mx/4.8.3/../../../../pic32mx/lib/fpu64\libpic32.a(pic32_init_tlb_ebi_sqi.o)
 .text          0x00000000        0x0 c:/program files/microchip/xc32/v2.50/bin/bin/../../lib/gcc/pic32mx/4.8.3/../../../../pic32mx/lib/fpu64\libpic32.a(general-exception.o)
 .data          0x00000000        0x0 c:/program files/microchip/xc32/v2.50/bin/bin/../../lib/gcc/pic32mx/4.8.3/../../../../pic32mx/lib/fpu64\libpic32.a(general-exception.o)
 .bss           0x00000000        0x0 c:/program files/microchip/xc32/v2.50/bin/bin/../../lib/gcc/pic32mx/4.8.3/../../../../pic32mx/lib/fpu64\libpic32.a(general-exception.o)
 .reginfo       0x00000000       0x18 c:/program files/microchip/xc32/v2.50/bin/bin/../../lib/gcc/pic32mx/4.8.3/../../../../pic32mx/lib/fpu64\libpic32.a(general-exception.o)
 .text          0x00000000        0x0 c:/program files/microchip/xc32/v2.50/bin/bin/../../lib/gcc/pic32mx/4.8.3/../../../../pic32mx/lib/fpu64\libpic32.a(cache-err-exception.o)
 .data          0x00000000        0x0 c:/program files/microchip/xc32/v2.50/bin/bin/../../lib/gcc/pic32mx/4.8.3/../../../../pic32mx/lib/fpu64\libpic32.a(cache-err-exception.o)
 .bss           0x00000000        0x0 c:/program files/microchip/xc32/v2.50/bin/bin/../../lib/gcc/pic32mx/4.8.3/../../../../pic32mx/lib/fpu64\libpic32.a(cache-err-exception.o)
 .reginfo       0x00000000       0x18 c:/program files/microchip/xc32/v2.50/bin/bin/../../lib/gcc/pic32mx/4.8.3/../../../../pic32mx/lib/fpu64\libpic32.a(cache-err-exception.o)
 .text          0x00000000        0x0 c:/program files/microchip/xc32/v2.50/bin/bin/../../lib/gcc/pic32mx/4.8.3/../../../../pic32mx/lib/fpu64\libpic32.a(simple-tlb-refill-exception.o)
 .data          0x00000000        0x0 c:/program files/microchip/xc32/v2.50/bin/bin/../../lib/gcc/pic32mx/4.8.3/../../../../pic32mx/lib/fpu64\libpic32.a(simple-tlb-refill-exception.o)
 .bss           0x00000000        0x0 c:/program files/microchip/xc32/v2.50/bin/bin/../../lib/gcc/pic32mx/4.8.3/../../../../pic32mx/lib/fpu64\libpic32.a(simple-tlb-refill-exception.o)
 .reginfo       0x00000000       0x18 c:/program files/microchip/xc32/v2.50/bin/bin/../../lib/gcc/pic32mx/4.8.3/../../../../pic32mx/lib/fpu64\libpic32.a(simple-tlb-refill-exception.o)
 .text          0x00000000        0x0 c:/program files/microchip/xc32/v2.50/bin/bin/../../lib/gcc/pic32mx/4.8.3/../../../../pic32mx/lib/fpu64\libpic32.a(defaultinterrupt.o)
 .data          0x00000000        0x0 c:/program files/microchip/xc32/v2.50/bin/bin/../../lib/gcc/pic32mx/4.8.3/../../../../pic32mx/lib/fpu64\libpic32.a(defaultinterrupt.o)
 .bss           0x00000000        0x0 c:/program files/microchip/xc32/v2.50/bin/bin/../../lib/gcc/pic32mx/4.8.3/../../../../pic32mx/lib/fpu64\libpic32.a(defaultinterrupt.o)
 .reginfo       0x00000000       0x18 c:/program files/microchip/xc32/v2.50/bin/bin/../../lib/gcc/pic32mx/4.8.3/../../../../pic32mx/lib/fpu64\libpic32.a(defaultinterrupt.o)
 .text          0x00000000        0x0 c:/program files/microchip/xc32/v2.50/bin/bin/../../lib/gcc/pic32mx/4.8.3/../../../../pic32mx/lib/fpu64\liblega-c.a(strncmp.o)
 .data          0x00000000        0x0 c:/program files/microchip/xc32/v2.50/bin/bin/../../lib/gcc/pic32mx/4.8.3/../../../../pic32mx/lib/fpu64\liblega-c.a(strncmp.o)
 .bss           0x00000000        0x0 c:/program files/microchip/xc32/v2.50/bin/bin/../../lib/gcc/pic32mx/4.8.3/../../../../pic32mx/lib/fpu64\liblega-c.a(strncmp.o)
 .reginfo       0x00000000       0x18 c:/program files/microchip/xc32/v2.50/bin/bin/../../lib/gcc/pic32mx/4.8.3/../../../../pic32mx/lib/fpu64\liblega-c.a(strncmp.o)
 .text          0x00000000        0x0 c:/program files/microchip/xc32/v2.50/bin/bin/../../lib/gcc/pic32mx/4.8.3/../../../../pic32mx/lib/fpu64\liblega-c.a(strchr.o)
 .data          0x00000000        0x0 c:/program files/microchip/xc32/v2.50/bin/bin/../../lib/gcc/pic32mx/4.8.3/../../../../pic32mx/lib/fpu64\liblega-c.a(strchr.o)
 .bss           0x00000000        0x0 c:/program files/microchip/xc32/v2.50/bin/bin/../../lib/gcc/pic32mx/4.8.3/../../../../pic32mx/lib/fpu64\liblega-c.a(strchr.o)
 .reginfo       0x00000000       0x18 c:/program files/microchip/xc32/v2.50/bin/bin/../../lib/gcc/pic32mx/4.8.3/../../../../pic32mx/lib/fpu64\liblega-c.a(strchr.o)
 .text          0x00000000        0x0 c:/program files/microchip/xc32/v2.50/bin/bin/../../lib/gcc/pic32mx/4.8.3/../../../../pic32mx/lib/fpu64\liblega-c.a(memmove.o)
 .data          0x00000000        0x0 c:/program files/microchip/xc32/v2.50/bin/bin/../../lib/gcc/pic32mx/4.8.3/../../../../pic32mx/lib/fpu64\liblega-c.a(memmove.o)
 .bss           0x00000000        0x0 c:/program files/microchip/xc32/v2.50/bin/bin/../../lib/gcc/pic32mx/4.8.3/../../../../pic32mx/lib/fpu64\liblega-c.a(memmove.o)
 .reginfo       0x00000000       0x18 c:/program files/microchip/xc32/v2.50/bin/bin/../../lib/gcc/pic32mx/4.8.3/../../../../pic32mx/lib/fpu64\liblega-c.a(memmove.o)

Memory Configuration

Name             Origin             Length             Attributes
kseg0_program_mem 0x9d000000         0x00200000         xr
kseg0_boot_mem   0x9fc004b0         0x00000000
kseg1_boot_mem   0xbfc00000         0x00000480
kseg1_boot_mem_4B0 0xbfc004b0         0x0000fa50
config_BFC0FF40  0xbfc0ff40         0x00000004
config_BFC0FF44  0xbfc0ff44         0x00000004
config_BFC0FF48  0xbfc0ff48         0x00000004
config_BFC0FF4C  0xbfc0ff4c         0x00000004
config_BFC0FF50  0xbfc0ff50         0x00000004
config_BFC0FF54  0xbfc0ff54         0x00000004
config_BFC0FF58  0xbfc0ff58         0x00000004
config_BFC0FF5C  0xbfc0ff5c         0x00000004
config_BFC0FF60  0xbfc0ff60         0x00000004
config_BFC0FF64  0xbfc0ff64         0x00000004
config_BFC0FF68  0xbfc0ff68         0x00000004
config_BFC0FF6C  0xbfc0ff6c         0x00000004
config_BFC0FF70  0xbfc0ff70         0x00000004
config_BFC0FF74  0xbfc0ff74         0x00000004
config_BFC0FF78  0xbfc0ff78         0x00000004
config_BFC0FF7C  0xbfc0ff7c         0x00000004
config_BFC0FFC0  0xbfc0ffc0         0x00000004
config_BFC0FFC4  0xbfc0ffc4         0x00000004
config_BFC0FFC8  0xbfc0ffc8         0x00000004
config_BFC0FFCC  0xbfc0ffcc         0x00000004
config_BFC0FFD0  0xbfc0ffd0         0x00000004
config_BFC0FFD4  0xbfc0ffd4         0x00000004
config_BFC0FFD8  0xbfc0ffd8         0x00000004
config_BFC0FFDC  0xbfc0ffdc         0x00000004
config_BFC0FFE0  0xbfc0ffe0         0x00000004
config_BFC0FFE4  0xbfc0ffe4         0x00000004
config_BFC0FFE8  0xbfc0ffe8         0x00000004
config_BFC0FFEC  0xbfc0ffec         0x00000004
config_BFC0FFF0  0xbfc0fff0         0x00000004
config_BFC0FFF4  0xbfc0fff4         0x00000004
config_BFC0FFF8  0xbfc0fff8         0x00000004
config_BFC0FFFC  0xbfc0fffc         0x00000004
lowerbootaliaslastpage 0xbfc10000         0x00004000
upperbootalias   0xbfc20000         0x0000ff00
config_BFC2FF40  0xbfc2ff40         0x00000004
config_BFC2FF44  0xbfc2ff44         0x00000004
config_BFC2FF48  0xbfc2ff48         0x00000004
config_BFC2FF4C  0xbfc2ff4c         0x00000004
config_BFC2FF50  0xbfc2ff50         0x00000004
config_BFC2FF54  0xbfc2ff54         0x00000004
config_BFC2FF58  0xbfc2ff58         0x00000004
config_BFC2FF5C  0xbfc2ff5c         0x00000004
config_BFC2FF60  0xbfc2ff60         0x00000004
config_BFC2FF64  0xbfc2ff64         0x00000004
config_BFC2FF68  0xbfc2ff68         0x00000004
config_BFC2FF6C  0xbfc2ff6c         0x00000004
config_BFC2FF70  0xbfc2ff70         0x00000004
config_BFC2FF74  0xbfc2ff74         0x00000004
config_BFC2FF78  0xbfc2ff78         0x00000004
config_BFC2FF7C  0xbfc2ff7c         0x00000004
config_BFC2FFC0  0xbfc2ffc0         0x00000004
config_BFC2FFC4  0xbfc2ffc4         0x00000004
config_BFC2FFC8  0xbfc2ffc8         0x00000004
config_BFC2FFCC  0xbfc2ffcc         0x00000004
config_BFC2FFD0  0xbfc2ffd0         0x00000004
config_BFC2FFD4  0xbfc2ffd4         0x00000004
config_BFC2FFD8  0xbfc2ffd8         0x00000004
config_BFC2FFDC  0xbfc2ffdc         0x00000004
config_BFC2FFE0  0xbfc2ffe0         0x00000004
config_BFC2FFE4  0xbfc2ffe4         0x00000004
config_BFC2FFE8  0xbfc2ffe8         0x00000004
config_BFC2FFEC  0xbfc2ffec         0x00000004
config_BFC2FFF0  0xbfc2fff0         0x00000004
config_BFC2FFF4  0xbfc2fff4         0x00000004
config_BFC2FFF8  0xbfc2fff8         0x00000004
config_BFC2FFFC  0xbfc2fffc         0x00000004
upperbootaliaslastpage 0xbfc30000         0x00004000
boot1            0xbfc40000         0x0000ff00
config_BFC4FF40  0xbfc4ff40         0x00000004
config_BFC4FF44  0xbfc4ff44         0x00000004
config_BFC4FF48  0xbfc4ff48         0x00000004
config_BFC4FF4C  0xbfc4ff4c         0x00000004
config_BFC4FF50  0xbfc4ff50         0x00000004
config_BFC4FF54  0xbfc4ff54         0x00000004
config_BFC4FF58  0xbfc4ff58         0x00000004
config_BFC4FF5C  0xbfc4ff5c         0x00000004
config_BFC4FF60  0xbfc4ff60         0x00000004
config_BFC4FF64  0xbfc4ff64         0x00000004
config_BFC4FF68  0xbfc4ff68         0x00000004
config_BFC4FF6C  0xbfc4ff6c         0x00000004
config_BFC4FF70  0xbfc4ff70         0x00000004
config_BFC4FF74  0xbfc4ff74         0x00000004
config_BFC4FF78  0xbfc4ff78         0x00000004
config_BFC4FF7C  0xbfc4ff7c         0x00000004
config_BFC4FFC0  0xbfc4ffc0         0x00000004
config_BFC4FFC4  0xbfc4ffc4         0x00000004
config_BFC4FFC8  0xbfc4ffc8         0x00000004
config_BFC4FFCC  0xbfc4ffcc         0x00000004
config_BFC4FFD0  0xbfc4ffd0         0x00000004
config_BFC4FFD4  0xbfc4ffd4         0x00000004
config_BFC4FFD8  0xbfc4ffd8         0x00000004
config_BFC4FFDC  0xbfc4ffdc         0x00000004
config_BFC4FFE0  0xbfc4ffe0         0x00000004
config_BFC4FFE4  0xbfc4ffe4         0x00000004
config_BFC4FFE8  0xbfc4ffe8         0x00000004
config_BFC4FFEC  0xbfc4ffec         0x00000004
config_BFC4FFF0  0xbfc4fff0         0x00000004
config_BFC4FFF4  0xbfc4fff4         0x00000004
config_BFC4FFF8  0xbfc4fff8         0x00000004
config_BFC4FFFC  0xbfc4fffc         0x00000004
boot1lastpage    0xbfc50000         0x00004000
config_BFC54000  0xbfc54000         0x00000004
config_BFC54004  0xbfc54004         0x00000004
config_BFC54008  0xbfc54008         0x00000004
config_BFC5400C  0xbfc5400c         0x00000004
config_BFC54010  0xbfc54010         0x00000004
config_BFC5401C  0xbfc5401c         0x00000004
config_BFC54020  0xbfc54020         0x00000004
config_BFC54024  0xbfc54024         0x00000004
boot2            0xbfc60000         0x0000ff00
config_BFC6FF40  0xbfc6ff40         0x00000004
config_BFC6FF44  0xbfc6ff44         0x00000004
config_BFC6FF48  0xbfc6ff48         0x00000004
config_BFC6FF4C  0xbfc6ff4c         0x00000004
config_BFC6FF50  0xbfc6ff50         0x00000004
config_BFC6FF54  0xbfc6ff54         0x00000004
config_BFC6FF58  0xbfc6ff58         0x00000004
config_BFC6FF5C  0xbfc6ff5c         0x00000004
config_BFC6FF60  0xbfc6ff60         0x00000004
config_BFC6FF64  0xbfc6ff64         0x00000004
config_BFC6FF68  0xbfc6ff68         0x00000004
config_BFC6FF6C  0xbfc6ff6c         0x00000004
config_BFC6FF70  0xbfc6ff70         0x00000004
config_BFC6FF74  0xbfc6ff74         0x00000004
config_BFC6FF78  0xbfc6ff78         0x00000004
config_BFC6FF7C  0xbfc6ff7c         0x00000004
config_BFC6FFC0  0xbfc6ffc0         0x00000004
config_BFC6FFC4  0xbfc6ffc4         0x00000004
config_BFC6FFC8  0xbfc6ffc8         0x00000004
config_BFC6FFCC  0xbfc6ffcc         0x00000004
config_BFC6FFD0  0xbfc6ffd0         0x00000004
config_BFC6FFD4  0xbfc6ffd4         0x00000004
config_BFC6FFD8  0xbfc6ffd8         0x00000004
config_BFC6FFDC  0xbfc6ffdc         0x00000004
config_BFC6FFE0  0xbfc6ffe0         0x00000004
config_BFC6FFE4  0xbfc6ffe4         0x00000004
config_BFC6FFE8  0xbfc6ffe8         0x00000004
config_BFC6FFEC  0xbfc6ffec         0x00000004
config_BFC6FFF0  0xbfc6fff0         0x00000004
config_BFC6FFF4  0xbfc6fff4         0x00000004
config_BFC6FFF8  0xbfc6fff8         0x00000004
config_BFC6FFFC  0xbfc6fffc         0x00000004
boot2lastpage    0xbfc70000         0x00004000
kseg0_data_mem   0x80000000         0x00080000         w !x
sfrs             0xbf800000         0x00100000
configsfrs_BFC0FF40 0xbfc0ff40         0x00000040
configsfrs_BFC0FFC0 0xbfc0ffc0         0x00000040
configsfrs_BFC2FF40 0xbfc2ff40         0x00000040
configsfrs_BFC2FFC0 0xbfc2ffc0         0x00000040
configsfrs_BFC4FF40 0xbfc4ff40         0x00000040
configsfrs_BFC4FFC0 0xbfc4ffc0         0x00000040
configsfrs_BFC54000 0xbfc54000         0x00000020
configsfrs_BFC6FF40 0xbfc6ff40         0x00000040
configsfrs_BFC6FFC0 0xbfc6ffc0         0x00000040
kseg2_ebi_data_mem 0xc0000000         0x04000000
kseg2_sqi_data_mem 0xd0000000         0x04000000
kseg3_ebi_data_mem 0xe0000000         0x04000000
kseg3_sqi_data_mem 0xf0000000         0x04000000
*default*        0x00000000         0xffffffff

Linker script and memory map

LOAD c:/program files/microchip/xc32/v2.50/bin/bin/../../lib/gcc/pic32mx/4.8.3/../../../../pic32mx/lib/fpu64\debug-exception-return.o
LOAD build/default/production/_ext/1100529066/drv_sdspi_driver_interface.o
LOAD build/default/production/_ext/1100529066/drv_sdspi.o
LOAD build/default/production/_ext/1100529066/drv_sdspi_file_system.o
LOAD build/default/production/_ext/2070931557/drv_spi.o
LOAD build/default/production/_ext/2071311437/drv_usbhs_device.o
LOAD build/default/production/_ext/2071311437/drv_usbhs.o
LOAD build/default/production/_ext/1529399856/osal_freertos.o
LOAD build/default/production/_ext/1984157808/plib_cache_pic32mz.o
LOAD build/default/production/_ext/1984157808/plib_cache.o
LOAD build/default/production/_ext/60165520/plib_clk.o
LOAD build/default/production/_ext/1249264884/plib_coretimer.o
LOAD build/default/production/_ext/1865200349/plib_evic.o
LOAD build/default/production/_ext/1865254177/plib_gpio.o
LOAD build/default/production/_ext/298189674/plib_spi4_master.o
LOAD build/default/production/_ext/163028504/xc32_monitor.o
LOAD build/default/production/_ext/1014039709/sys_cache.o
LOAD build/default/production/_ext/14461671/sys_dma.o
LOAD build/default/production/_ext/411819097/ffunicode.o
LOAD build/default/production/_ext/411819097/ff.o
LOAD build/default/production/_ext/565198302/diskio.o
LOAD build/default/production/_ext/1269487135/sys_fs_fat_interface.o
LOAD build/default/production/_ext/1269487135/sys_fs_media_manager.o
LOAD build/default/production/_ext/1269487135/sys_fs.o
LOAD build/default/production/_ext/1881668453/sys_int.o
LOAD build/default/production/_ext/101884895/sys_time.o
LOAD build/default/production/_ext/308758920/usb_device.o
LOAD build/default/production/_ext/308758920/usb_device_cdc_acm.o
LOAD build/default/production/_ext/308758920/usb_device_cdc.o
LOAD build/default/production/_ext/1171490990/freertos_hooks.o
LOAD build/default/production/_ext/1171490990/initialization.o
LOAD build/default/production/_ext/1171490990/interrupts.o
LOAD build/default/production/_ext/1171490990/interrupts_a.o
LOAD build/default/production/_ext/1171490990/exceptions.o
LOAD build/default/production/_ext/1171490990/tasks.o
LOAD build/default/production/_ext/1171490990/usb_device_init_data.o
LOAD build/default/production/_ext/1665200909/heap_4.o
LOAD build/default/production/_ext/951553246/port.o
LOAD build/default/production/_ext/951553246/port_asm.o
LOAD build/default/production/_ext/404212886/FreeRTOS_tasks.o
LOAD build/default/production/_ext/404212886/list.o
LOAD build/default/production/_ext/404212886/queue.o
LOAD build/default/production/_ext/404212886/croutine.o
LOAD build/default/production/_ext/404212886/event_groups.o
LOAD build/default/production/_ext/404212886/stream_buffer.o
LOAD build/default/production/_ext/404212886/timers.o
LOAD build/default/production/_ext/1360937237/app_freertos.o
LOAD build/default/production/_ext/1360937237/main.o
LOAD build/default/production/_ext/1865161661/plib_dmac.o
                0x00000001                __MPLAB_BUILD = 0x1
                0x00000400                PROVIDE (_min_stack_size, 0x400)
START GROUP
LOAD c:/program files/microchip/xc32/v2.50/bin/bin/../../lib/gcc/pic32mx/4.8.3/../../../../pic32mx/lib/./proc/32MZ2048EFM144\vector_offset_init.o
END GROUP
                0x00000001                PROVIDE (_vector_spacing, 0x1)
                0x9d000000                PROVIDE (_ebase_address, 0x9d000000)
                0xbfc00000                _RESET_ADDR = 0xbfc00000
                0xbfc00380                _BEV_EXCPT_ADDR = 0xbfc00380
                0xbfc00480                _DBG_EXCPT_ADDR = 0xbfc00480
                0x9d000000                _SIMPLE_TLB_REFILL_EXCPT_ADDR = (_ebase_address + 0x0)
                0x9d000100                _CACHE_ERR_EXCPT_ADDR = (_ebase_address + 0x100)
                0x9d000180                _GEN_EXCPT_ADDR = (_ebase_address + 0x180)

.config_BFC0FF40
 *(.config_BFC0FF40)

.config_BFC0FF44
 *(.config_BFC0FF44)

.config_BFC0FF48
 *(.config_BFC0FF48)

.config_BFC0FF4C
 *(.config_BFC0FF4C)

.config_BFC0FF50
 *(.config_BFC0FF50)

.config_BFC0FF54
 *(.config_BFC0FF54)

.config_BFC0FF58
 *(.config_BFC0FF58)

.config_BFC0FF5C
 *(.config_BFC0FF5C)

.config_BFC0FF60
 *(.config_BFC0FF60)

.config_BFC0FF64
 *(.config_BFC0FF64)

.config_BFC0FF68
 *(.config_BFC0FF68)

.config_BFC0FF6C
 *(.config_BFC0FF6C)

.config_BFC0FF70
 *(.config_BFC0FF70)

.config_BFC0FF74
 *(.config_BFC0FF74)

.config_BFC0FF78
 *(.config_BFC0FF78)

.config_BFC0FF7C
 *(.config_BFC0FF7C)

.config_BFC0FFC0
                0xbfc0ffc0        0x4
 *(.config_BFC0FFC0)
 .config_BFC0FFC0
                0xbfc0ffc0        0x4 build/default/production/_ext/1171490990/initialization.o

.config_BFC0FFC4
                0xbfc0ffc4        0x4
 *(.config_BFC0FFC4)
 .config_BFC0FFC4
                0xbfc0ffc4        0x4 build/default/production/_ext/1171490990/initialization.o

.config_BFC0FFC8
                0xbfc0ffc8        0x4
 *(.config_BFC0FFC8)
 .config_BFC0FFC8
                0xbfc0ffc8        0x4 build/default/production/_ext/1171490990/initialization.o

.config_BFC0FFCC
                0xbfc0ffcc        0x4
 *(.config_BFC0FFCC)
 .config_BFC0FFCC
                0xbfc0ffcc        0x4 build/default/production/_ext/1171490990/initialization.o

.config_BFC0FFD0
 *(.config_BFC0FFD0)

.config_BFC0FFD4
 *(.config_BFC0FFD4)

.config_BFC0FFD8
 *(.config_BFC0FFD8)

.config_BFC0FFDC
                0xbfc0ffdc        0x4
 *(.config_BFC0FFDC)
 .config_BFC0FFDC
                0xbfc0ffdc        0x4 build/default/production/_ext/1171490990/initialization.o

.config_BFC0FFE0
 *(.config_BFC0FFE0)

.config_BFC0FFE4
 *(.config_BFC0FFE4)

.config_BFC0FFE8
 *(.config_BFC0FFE8)

.config_BFC0FFEC
 *(.config_BFC0FFEC)

.config_BFC0FFF0
                0xbfc0fff0        0x4
 *(.config_BFC0FFF0)
 .config_BFC0FFF0
                0xbfc0fff0        0x4 build/default/production/_ext/1171490990/initialization.o

.config_BFC0FFF4
 *(.config_BFC0FFF4)

.config_BFC0FFF8
 *(.config_BFC0FFF8)

.config_BFC0FFFC
 *(.config_BFC0FFFC)

.config_BFC2FF40
 *(.config_BFC2FF40)

.config_BFC2FF44
 *(.config_BFC2FF44)

.config_BFC2FF48
 *(.config_BFC2FF48)

.config_BFC2FF4C
 *(.config_BFC2FF4C)

.config_BFC2FF50
 *(.config_BFC2FF50)

.config_BFC2FF54
 *(.config_BFC2FF54)

.config_BFC2FF58
 *(.config_BFC2FF58)

.config_BFC2FF5C
 *(.config_BFC2FF5C)

.config_BFC2FF60
 *(.config_BFC2FF60)

.config_BFC2FF64
 *(.config_BFC2FF64)

.config_BFC2FF68
 *(.config_BFC2FF68)

.config_BFC2FF6C
 *(.config_BFC2FF6C)

.config_BFC2FF70
 *(.config_BFC2FF70)

.config_BFC2FF74
 *(.config_BFC2FF74)

.config_BFC2FF78
 *(.config_BFC2FF78)

.config_BFC2FF7C
 *(.config_BFC2FF7C)

.config_BFC2FFC0
 *(.config_BFC2FFC0)

.config_BFC2FFC4
 *(.config_BFC2FFC4)

.config_BFC2FFC8
 *(.config_BFC2FFC8)

.config_BFC2FFCC
 *(.config_BFC2FFCC)

.config_BFC2FFD0
 *(.config_BFC2FFD0)

.config_BFC2FFD4
 *(.config_BFC2FFD4)

.config_BFC2FFD8
 *(.config_BFC2FFD8)

.config_BFC2FFDC
 *(.config_BFC2FFDC)

.config_BFC2FFE0
 *(.config_BFC2FFE0)

.config_BFC2FFE4
 *(.config_BFC2FFE4)

.config_BFC2FFE8
 *(.config_BFC2FFE8)

.config_BFC2FFEC
 *(.config_BFC2FFEC)

.config_BFC2FFF0
 *(.config_BFC2FFF0)

.config_BFC2FFF4
 *(.config_BFC2FFF4)

.config_BFC2FFF8
 *(.config_BFC2FFF8)

.config_BFC2FFFC
 *(.config_BFC2FFFC)

.config_BFC4FF40
 *(.config_BFC4FF40)

.config_BFC4FF44
 *(.config_BFC4FF44)

.config_BFC4FF48
 *(.config_BFC4FF48)

.config_BFC4FF4C
 *(.config_BFC4FF4C)

.config_BFC4FF50
 *(.config_BFC4FF50)

.config_BFC4FF54
 *(.config_BFC4FF54)

.config_BFC4FF58
 *(.config_BFC4FF58)

.config_BFC4FF5C
 *(.config_BFC4FF5C)

.config_BFC4FF60
 *(.config_BFC4FF60)

.config_BFC4FF64
 *(.config_BFC4FF64)

.config_BFC4FF68
 *(.config_BFC4FF68)

.config_BFC4FF6C
 *(.config_BFC4FF6C)

.config_BFC4FF70
 *(.config_BFC4FF70)

.config_BFC4FF74
 *(.config_BFC4FF74)

.config_BFC4FF78
 *(.config_BFC4FF78)

.config_BFC4FF7C
 *(.config_BFC4FF7C)

.config_BFC4FFC0
 *(.config_BFC4FFC0)

.config_BFC4FFC4
 *(.config_BFC4FFC4)

.config_BFC4FFC8
 *(.config_BFC4FFC8)

.config_BFC4FFCC
 *(.config_BFC4FFCC)

.config_BFC4FFD0
 *(.config_BFC4FFD0)

.config_BFC4FFD4
 *(.config_BFC4FFD4)

.config_BFC4FFD8
 *(.config_BFC4FFD8)

.config_BFC4FFDC
 *(.config_BFC4FFDC)

.config_BFC4FFE0
 *(.config_BFC4FFE0)

.config_BFC4FFE4
 *(.config_BFC4FFE4)

.config_BFC4FFE8
 *(.config_BFC4FFE8)

.config_BFC4FFEC
 *(.config_BFC4FFEC)

.config_BFC4FFF0
 *(.config_BFC4FFF0)

.config_BFC4FFF4
 *(.config_BFC4FFF4)

.config_BFC4FFF8
 *(.config_BFC4FFF8)

.config_BFC4FFFC
 *(.config_BFC4FFFC)

.config_BFC54000
 *(.config_BFC54000)

.config_BFC54004
 *(.config_BFC54004)

.config_BFC54008
 *(.config_BFC54008)

.config_BFC5400C
 *(.config_BFC5400C)

.config_BFC54010
 *(.config_BFC54010)

.config_BFC5401C
 *(.config_BFC5401C)

.config_BFC54020
 *(.config_BFC54020)

.config_BFC54024
 *(.config_BFC54024)

.config_BFC6FF40
 *(.config_BFC6FF40)

.config_BFC6FF44
 *(.config_BFC6FF44)

.config_BFC6FF48
 *(.config_BFC6FF48)

.config_BFC6FF4C
 *(.config_BFC6FF4C)

.config_BFC6FF50
 *(.config_BFC6FF50)

.config_BFC6FF54
 *(.config_BFC6FF54)

.config_BFC6FF58
 *(.config_BFC6FF58)

.config_BFC6FF5C
 *(.config_BFC6FF5C)

.config_BFC6FF60
 *(.config_BFC6FF60)

.config_BFC6FF64
 *(.config_BFC6FF64)

.config_BFC6FF68
 *(.config_BFC6FF68)

.config_BFC6FF6C
 *(.config_BFC6FF6C)

.config_BFC6FF70
 *(.config_BFC6FF70)

.config_BFC6FF74
 *(.config_BFC6FF74)

.config_BFC6FF78
 *(.config_BFC6FF78)

.config_BFC6FF7C
 *(.config_BFC6FF7C)

.config_BFC6FFC0
 *(.config_BFC6FFC0)

.config_BFC6FFC4
 *(.config_BFC6FFC4)

.config_BFC6FFC8
 *(.config_BFC6FFC8)

.config_BFC6FFCC
 *(.config_BFC6FFCC)

.config_BFC6FFD0
 *(.config_BFC6FFD0)

.config_BFC6FFD4
 *(.config_BFC6FFD4)

.config_BFC6FFD8
 *(.config_BFC6FFD8)

.config_BFC6FFDC
 *(.config_BFC6FFDC)

.config_BFC6FFE0
 *(.config_BFC6FFE0)

.config_BFC6FFE4
 *(.config_BFC6FFE4)

.config_BFC6FFE8
 *(.config_BFC6FFE8)

.config_BFC6FFEC
 *(.config_BFC6FFEC)

.config_BFC6FFF0
 *(.config_BFC6FFF0)

.config_BFC6FFF4
 *(.config_BFC6FFF4)

.config_BFC6FFF8
 *(.config_BFC6FFF8)

.config_BFC6FFFC
 *(.config_BFC6FFFC)

.reset          0xbfc00000      0x1c4
 *(.reset)
 .reset         0xbfc00000       0x18 C:\Users\asus3\AppData\Local\Temp\ccX7AMLn.o
                0xbfc00000                _reset
 *(.reset.startup)
 .reset.startup
                0xbfc00018      0x1ac C:\Users\asus3\AppData\Local\Temp\ccX7AMLn.o
                0xbfc00018                _startup

.bev_excpt      0xbfc00380       0x10
 *(.bev_handler)
 .bev_handler   0xbfc00380       0x10 C:\Users\asus3\AppData\Local\Temp\ccX7AMLn.o

.cache_init     0xbfc004b0      0x1c0
 *(.cache_init)
 *(.cache_init.*)
 .cache_init.cache
                0xbfc004b0       0xc0 c:/program files/microchip/xc32/v2.50/bin/bin/../../lib/gcc/pic32mx/4.8.3/../../../../pic32mx/lib/fpu64\libpic32.a(pic32_init_cache.o)
 .cache_init.pic32_init_cache
                0xbfc00570      0x100 c:/program files/microchip/xc32/v2.50/bin/bin/../../lib/gcc/pic32mx/4.8.3/../../../../pic32mx/lib/fpu64\libpic32.a(pic32_init_cache.o)
                0xbfc00570                __pic32_init_cache

.simple_tlb_refill_excpt
                0x9d000000       0x10
 *(.simple_tlb_refill_vector)
 .simple_tlb_refill_vector
                0x9d000000       0x10 C:\Users\asus3\AppData\Local\Temp\ccX7AMLn.o

.cache_err_excpt
                0x9d000100       0x10
 *(.cache_err_vector)
 .cache_err_vector
                0x9d000100       0x10 C:\Users\asus3\AppData\Local\Temp\ccX7AMLn.o

.app_excpt      0x9d000180       0x10
 *(.gen_handler)
 .gen_handler   0x9d000180       0x10 C:\Users\asus3\AppData\Local\Temp\ccX7AMLn.o

.vectors        0x9d000200     0x2304
                0x9d000200                . = ALIGN (0x4)
                0x00000200                __vector_offset_0 = DEFINED (__vector_dispatch_0)?(. - _ebase_address):__vector_offset_default
 *(.vector_0)
 .vector_0      0x9d000200      0x3e0 build/default/production/_ext/1171490990/interrupts_a.o
                0x9d000200                __vector_dispatch_0
                0x9d0005e0                . = ALIGN (0x4)
                0x000005e0                __vector_offset_1 = DEFINED (__vector_dispatch_1)?(. - _ebase_address):__vector_offset_default
 *(.vector_1)
 .vector_1      0x9d0005e0      0x3c4 build/default/production/_ext/951553246/port_asm.o
                0x9d0005e0                __vector_dispatch_1
                0x9d0005e0                vPortYieldISR
                0x9d0009a4                . = ALIGN (0x4)
                0x000024bc                __vector_offset_2 = DEFINED (__vector_dispatch_2)?(. - _ebase_address):__vector_offset_default
 *(.vector_2)
                0x9d0009a4                . = ALIGN (0x4)
                0x000024bc                __vector_offset_3 = DEFINED (__vector_dispatch_3)?(. - _ebase_address):__vector_offset_default
 *(.vector_3)
                0x9d0009a4                . = ALIGN (0x4)
                0x000009a4                __vector_offset_4 = DEFINED (__vector_dispatch_4)?(. - _ebase_address):__vector_offset_default
 *(.vector_4)
 .vector_4      0x9d0009a4      0x3d8 build/default/production/_ext/951553246/port_asm.o
                0x9d0009a4                vPortTickInterruptHandler
                0x9d0009a4                __vector_dispatch_4
                0x9d000d7c                . = ALIGN (0x4)
                0x000024bc                __vector_offset_5 = DEFINED (__vector_dispatch_5)?(. - _ebase_address):__vector_offset_default
 *(.vector_5)
                0x9d000d7c                . = ALIGN (0x4)
                0x000024bc                __vector_offset_6 = DEFINED (__vector_dispatch_6)?(. - _ebase_address):__vector_offset_default
 *(.vector_6)
                0x9d000d7c                . = ALIGN (0x4)
                0x000024bc                __vector_offset_7 = DEFINED (__vector_dispatch_7)?(. - _ebase_address):__vector_offset_default
 *(.vector_7)
                0x9d000d7c                . = ALIGN (0x4)
                0x000024bc                __vector_offset_8 = DEFINED (__vector_dispatch_8)?(. - _ebase_address):__vector_offset_default
 *(.vector_8)
                0x9d000d7c                . = ALIGN (0x4)
                0x000024bc                __vector_offset_9 = DEFINED (__vector_dispatch_9)?(. - _ebase_address):__vector_offset_default
 *(.vector_9)
                0x9d000d7c                . = ALIGN (0x4)
                0x000024bc                __vector_offset_10 = DEFINED (__vector_dispatch_10)?(. - _ebase_address):__vector_offset_default
 *(.vector_10)
                0x9d000d7c                . = ALIGN (0x4)
                0x000024bc                __vector_offset_11 = DEFINED (__vector_dispatch_11)?(. - _ebase_address):__vector_offset_default
 *(.vector_11)
                0x9d000d7c                . = ALIGN (0x4)
                0x000024bc                __vector_offset_12 = DEFINED (__vector_dispatch_12)?(. - _ebase_address):__vector_offset_default
 *(.vector_12)
                0x9d000d7c                . = ALIGN (0x4)
                0x000024bc                __vector_offset_13 = DEFINED (__vector_dispatch_13)?(. - _ebase_address):__vector_offset_default
 *(.vector_13)
                0x9d000d7c                . = ALIGN (0x4)
                0x000024bc                __vector_offset_14 = DEFINED (__vector_dispatch_14)?(. - _ebase_address):__vector_offset_default
 *(.vector_14)
                0x9d000d7c                . = ALIGN (0x4)
                0x000024bc                __vector_offset_15 = DEFINED (__vector_dispatch_15)?(. - _ebase_address):__vector_offset_default
 *(.vector_15)
                0x9d000d7c                . = ALIGN (0x4)
                0x000024bc                __vector_offset_16 = DEFINED (__vector_dispatch_16)?(. - _ebase_address):__vector_offset_default
 *(.vector_16)
                0x9d000d7c                . = ALIGN (0x4)
                0x000024bc                __vector_offset_17 = DEFINED (__vector_dispatch_17)?(. - _ebase_address):__vector_offset_default
 *(.vector_17)
                0x9d000d7c                . = ALIGN (0x4)
                0x000024bc                __vector_offset_18 = DEFINED (__vector_dispatch_18)?(. - _ebase_address):__vector_offset_default
 *(.vector_18)
                0x9d000d7c                . = ALIGN (0x4)
                0x000024bc                __vector_offset_19 = DEFINED (__vector_dispatch_19)?(. - _ebase_address):__vector_offset_default
 *(.vector_19)
                0x9d000d7c                . = ALIGN (0x4)
                0x000024bc                __vector_offset_20 = DEFINED (__vector_dispatch_20)?(. - _ebase_address):__vector_offset_default
 *(.vector_20)
                0x9d000d7c                . = ALIGN (0x4)
                0x000024bc                __vector_offset_21 = DEFINED (__vector_dispatch_21)?(. - _ebase_address):__vector_offset_default
 *(.vector_21)
                0x9d000d7c                . = ALIGN (0x4)
                0x000024bc                __vector_offset_22 = DEFINED (__vector_dispatch_22)?(. - _ebase_address):__vector_offset_default
 *(.vector_22)
                0x9d000d7c                . = ALIGN (0x4)
                0x000024bc                __vector_offset_23 = DEFINED (__vector_dispatch_23)?(. - _ebase_address):__vector_offset_default
 *(.vector_23)
                0x9d000d7c                . = ALIGN (0x4)
                0x000024bc                __vector_offset_24 = DEFINED (__vector_dispatch_24)?(. - _ebase_address):__vector_offset_default
 *(.vector_24)
                0x9d000d7c                . = ALIGN (0x4)
                0x000024bc                __vector_offset_25 = DEFINED (__vector_dispatch_25)?(. - _ebase_address):__vector_offset_default
 *(.vector_25)
                0x9d000d7c                . = ALIGN (0x4)
                0x000024bc                __vector_offset_26 = DEFINED (__vector_dispatch_26)?(. - _ebase_address):__vector_offset_default
 *(.vector_26)
                0x9d000d7c                . = ALIGN (0x4)
                0x000024bc                __vector_offset_27 = DEFINED (__vector_dispatch_27)?(. - _ebase_address):__vector_offset_default
 *(.vector_27)
                0x9d000d7c                . = ALIGN (0x4)
                0x000024bc                __vector_offset_28 = DEFINED (__vector_dispatch_28)?(. - _ebase_address):__vector_offset_default
 *(.vector_28)
                0x9d000d7c                . = ALIGN (0x4)
                0x000024bc                __vector_offset_29 = DEFINED (__vector_dispatch_29)?(. - _ebase_address):__vector_offset_default
 *(.vector_29)
                0x9d000d7c                . = ALIGN (0x4)
                0x000024bc                __vector_offset_30 = DEFINED (__vector_dispatch_30)?(. - _ebase_address):__vector_offset_default
 *(.vector_30)
                0x9d000d7c                . = ALIGN (0x4)
                0x000024bc                __vector_offset_31 = DEFINED (__vector_dispatch_31)?(. - _ebase_address):__vector_offset_default
 *(.vector_31)
                0x9d000d7c                . = ALIGN (0x4)
                0x000024bc                __vector_offset_32 = DEFINED (__vector_dispatch_32)?(. - _ebase_address):__vector_offset_default
 *(.vector_32)
                0x9d000d7c                . = ALIGN (0x4)
                0x000024bc                __vector_offset_33 = DEFINED (__vector_dispatch_33)?(. - _ebase_address):__vector_offset_default
 *(.vector_33)
                0x9d000d7c                . = ALIGN (0x4)
                0x000024bc                __vector_offset_34 = DEFINED (__vector_dispatch_34)?(. - _ebase_address):__vector_offset_default
 *(.vector_34)
                0x9d000d7c                . = ALIGN (0x4)
                0x000024bc                __vector_offset_35 = DEFINED (__vector_dispatch_35)?(. - _ebase_address):__vector_offset_default
 *(.vector_35)
                0x9d000d7c                . = ALIGN (0x4)
                0x000024bc                __vector_offset_36 = DEFINED (__vector_dispatch_36)?(. - _ebase_address):__vector_offset_default
 *(.vector_36)
                0x9d000d7c                . = ALIGN (0x4)
                0x000024bc                __vector_offset_37 = DEFINED (__vector_dispatch_37)?(. - _ebase_address):__vector_offset_default
 *(.vector_37)
                0x9d000d7c                . = ALIGN (0x4)
                0x000024bc                __vector_offset_38 = DEFINED (__vector_dispatch_38)?(. - _ebase_address):__vector_offset_default
 *(.vector_38)
                0x9d000d7c                . = ALIGN (0x4)
                0x000024bc                __vector_offset_39 = DEFINED (__vector_dispatch_39)?(. - _ebase_address):__vector_offset_default
 *(.vector_39)
                0x9d000d7c                . = ALIGN (0x4)
                0x000024bc                __vector_offset_40 = DEFINED (__vector_dispatch_40)?(. - _ebase_address):__vector_offset_default
 *(.vector_40)
                0x9d000d7c                . = ALIGN (0x4)
                0x000024bc                __vector_offset_41 = DEFINED (__vector_dispatch_41)?(. - _ebase_address):__vector_offset_default
 *(.vector_41)
                0x9d000d7c                . = ALIGN (0x4)
                0x000024bc                __vector_offset_42 = DEFINED (__vector_dispatch_42)?(. - _ebase_address):__vector_offset_default
 *(.vector_42)
                0x9d000d7c                . = ALIGN (0x4)
                0x000024bc                __vector_offset_43 = DEFINED (__vector_dispatch_43)?(. - _ebase_address):__vector_offset_default
 *(.vector_43)
                0x9d000d7c                . = ALIGN (0x4)
                0x000024bc                __vector_offset_44 = DEFINED (__vector_dispatch_44)?(. - _ebase_address):__vector_offset_default
 *(.vector_44)
                0x9d000d7c                . = ALIGN (0x4)
                0x000024bc                __vector_offset_45 = DEFINED (__vector_dispatch_45)?(. - _ebase_address):__vector_offset_default
 *(.vector_45)
                0x9d000d7c                . = ALIGN (0x4)
                0x000024bc                __vector_offset_46 = DEFINED (__vector_dispatch_46)?(. - _ebase_address):__vector_offset_default
 *(.vector_46)
                0x9d000d7c                . = ALIGN (0x4)
                0x000024bc                __vector_offset_47 = DEFINED (__vector_dispatch_47)?(. - _ebase_address):__vector_offset_default
 *(.vector_47)
                0x9d000d7c                . = ALIGN (0x4)
                0x000024bc                __vector_offset_48 = DEFINED (__vector_dispatch_48)?(. - _ebase_address):__vector_offset_default
 *(.vector_48)
                0x9d000d7c                . = ALIGN (0x4)
                0x000024bc                __vector_offset_49 = DEFINED (__vector_dispatch_49)?(. - _ebase_address):__vector_offset_default
 *(.vector_49)
                0x9d000d7c                . = ALIGN (0x4)
                0x000024bc                __vector_offset_50 = DEFINED (__vector_dispatch_50)?(. - _ebase_address):__vector_offset_default
 *(.vector_50)
                0x9d000d7c                . = ALIGN (0x4)
                0x000024bc                __vector_offset_51 = DEFINED (__vector_dispatch_51)?(. - _ebase_address):__vector_offset_default
 *(.vector_51)
                0x9d000d7c                . = ALIGN (0x4)
                0x000024bc                __vector_offset_52 = DEFINED (__vector_dispatch_52)?(. - _ebase_address):__vector_offset_default
 *(.vector_52)
                0x9d000d7c                . = ALIGN (0x4)
                0x000024bc                __vector_offset_53 = DEFINED (__vector_dispatch_53)?(. - _ebase_address):__vector_offset_default
 *(.vector_53)
                0x9d000d7c                . = ALIGN (0x4)
                0x000024bc                __vector_offset_54 = DEFINED (__vector_dispatch_54)?(. - _ebase_address):__vector_offset_default
 *(.vector_54)
                0x9d000d7c                . = ALIGN (0x4)
                0x000024bc                __vector_offset_55 = DEFINED (__vector_dispatch_55)?(. - _ebase_address):__vector_offset_default
 *(.vector_55)
                0x9d000d7c                . = ALIGN (0x4)
                0x000024bc                __vector_offset_56 = DEFINED (__vector_dispatch_56)?(. - _ebase_address):__vector_offset_default
 *(.vector_56)
                0x9d000d7c                . = ALIGN (0x4)
                0x000024bc                __vector_offset_57 = DEFINED (__vector_dispatch_57)?(. - _ebase_address):__vector_offset_default
 *(.vector_57)
                0x9d000d7c                . = ALIGN (0x4)
                0x000024bc                __vector_offset_58 = DEFINED (__vector_dispatch_58)?(. - _ebase_address):__vector_offset_default
 *(.vector_58)
                0x9d000d7c                . = ALIGN (0x4)
                0x000024bc                __vector_offset_59 = DEFINED (__vector_dispatch_59)?(. - _ebase_address):__vector_offset_default
 *(.vector_59)
                0x9d000d7c                . = ALIGN (0x4)
                0x000024bc                __vector_offset_60 = DEFINED (__vector_dispatch_60)?(. - _ebase_address):__vector_offset_default
 *(.vector_60)
                0x9d000d7c                . = ALIGN (0x4)
                0x000024bc                __vector_offset_61 = DEFINED (__vector_dispatch_61)?(. - _ebase_address):__vector_offset_default
 *(.vector_61)
                0x9d000d7c                . = ALIGN (0x4)
                0x000024bc                __vector_offset_62 = DEFINED (__vector_dispatch_62)?(. - _ebase_address):__vector_offset_default
 *(.vector_62)
                0x9d000d7c                . = ALIGN (0x4)
                0x000024bc                __vector_offset_63 = DEFINED (__vector_dispatch_63)?(. - _ebase_address):__vector_offset_default
 *(.vector_63)
                0x9d000d7c                . = ALIGN (0x4)
                0x000024bc                __vector_offset_64 = DEFINED (__vector_dispatch_64)?(. - _ebase_address):__vector_offset_default
 *(.vector_64)
                0x9d000d7c                . = ALIGN (0x4)
                0x000024bc                __vector_offset_65 = DEFINED (__vector_dispatch_65)?(. - _ebase_address):__vector_offset_default
 *(.vector_65)
                0x9d000d7c                . = ALIGN (0x4)
                0x000024bc                __vector_offset_66 = DEFINED (__vector_dispatch_66)?(. - _ebase_address):__vector_offset_default
 *(.vector_66)
                0x9d000d7c                . = ALIGN (0x4)
                0x000024bc                __vector_offset_67 = DEFINED (__vector_dispatch_67)?(. - _ebase_address):__vector_offset_default
 *(.vector_67)
                0x9d000d7c                . = ALIGN (0x4)
                0x000024bc                __vector_offset_68 = DEFINED (__vector_dispatch_68)?(. - _ebase_address):__vector_offset_default
 *(.vector_68)
                0x9d000d7c                . = ALIGN (0x4)
                0x000024bc                __vector_offset_69 = DEFINED (__vector_dispatch_69)?(. - _ebase_address):__vector_offset_default
 *(.vector_69)
                0x9d000d7c                . = ALIGN (0x4)
                0x000024bc                __vector_offset_70 = DEFINED (__vector_dispatch_70)?(. - _ebase_address):__vector_offset_default
 *(.vector_70)
                0x9d000d7c                . = ALIGN (0x4)
                0x000024bc                __vector_offset_71 = DEFINED (__vector_dispatch_71)?(. - _ebase_address):__vector_offset_default
 *(.vector_71)
                0x9d000d7c                . = ALIGN (0x4)
                0x000024bc                __vector_offset_72 = DEFINED (__vector_dispatch_72)?(. - _ebase_address):__vector_offset_default
 *(.vector_72)
                0x9d000d7c                . = ALIGN (0x4)
                0x000024bc                __vector_offset_73 = DEFINED (__vector_dispatch_73)?(. - _ebase_address):__vector_offset_default
 *(.vector_73)
                0x9d000d7c                . = ALIGN (0x4)
                0x000024bc                __vector_offset_74 = DEFINED (__vector_dispatch_74)?(. - _ebase_address):__vector_offset_default
 *(.vector_74)
                0x9d000d7c                . = ALIGN (0x4)
                0x000024bc                __vector_offset_75 = DEFINED (__vector_dispatch_75)?(. - _ebase_address):__vector_offset_default
 *(.vector_75)
                0x9d000d7c                . = ALIGN (0x4)
                0x000024bc                __vector_offset_76 = DEFINED (__vector_dispatch_76)?(. - _ebase_address):__vector_offset_default
 *(.vector_76)
                0x9d000d7c                . = ALIGN (0x4)
                0x000024bc                __vector_offset_77 = DEFINED (__vector_dispatch_77)?(. - _ebase_address):__vector_offset_default
 *(.vector_77)
                0x9d000d7c                . = ALIGN (0x4)
                0x000024bc                __vector_offset_78 = DEFINED (__vector_dispatch_78)?(. - _ebase_address):__vector_offset_default
 *(.vector_78)
                0x9d000d7c                . = ALIGN (0x4)
                0x000024bc                __vector_offset_79 = DEFINED (__vector_dispatch_79)?(. - _ebase_address):__vector_offset_default
 *(.vector_79)
                0x9d000d7c                . = ALIGN (0x4)
                0x000024bc                __vector_offset_80 = DEFINED (__vector_dispatch_80)?(. - _ebase_address):__vector_offset_default
 *(.vector_80)
                0x9d000d7c                . = ALIGN (0x4)
                0x000024bc                __vector_offset_81 = DEFINED (__vector_dispatch_81)?(. - _ebase_address):__vector_offset_default
 *(.vector_81)
                0x9d000d7c                . = ALIGN (0x4)
                0x000024bc                __vector_offset_82 = DEFINED (__vector_dispatch_82)?(. - _ebase_address):__vector_offset_default
 *(.vector_82)
                0x9d000d7c                . = ALIGN (0x4)
                0x000024bc                __vector_offset_83 = DEFINED (__vector_dispatch_83)?(. - _ebase_address):__vector_offset_default
 *(.vector_83)
                0x9d000d7c                . = ALIGN (0x4)
                0x000024bc                __vector_offset_84 = DEFINED (__vector_dispatch_84)?(. - _ebase_address):__vector_offset_default
 *(.vector_84)
                0x9d000d7c                . = ALIGN (0x4)
                0x000024bc                __vector_offset_85 = DEFINED (__vector_dispatch_85)?(. - _ebase_address):__vector_offset_default
 *(.vector_85)
                0x9d000d7c                . = ALIGN (0x4)
                0x000024bc                __vector_offset_86 = DEFINED (__vector_dispatch_86)?(. - _ebase_address):__vector_offset_default
 *(.vector_86)
                0x9d000d7c                . = ALIGN (0x4)
                0x000024bc                __vector_offset_87 = DEFINED (__vector_dispatch_87)?(. - _ebase_address):__vector_offset_default
 *(.vector_87)
                0x9d000d7c                . = ALIGN (0x4)
                0x000024bc                __vector_offset_88 = DEFINED (__vector_dispatch_88)?(. - _ebase_address):__vector_offset_default
 *(.vector_88)
                0x9d000d7c                . = ALIGN (0x4)
                0x000024bc                __vector_offset_89 = DEFINED (__vector_dispatch_89)?(. - _ebase_address):__vector_offset_default
 *(.vector_89)
                0x9d000d7c                . = ALIGN (0x4)
                0x000024bc                __vector_offset_90 = DEFINED (__vector_dispatch_90)?(. - _ebase_address):__vector_offset_default
 *(.vector_90)
                0x9d000d7c                . = ALIGN (0x4)
                0x000024bc                __vector_offset_91 = DEFINED (__vector_dispatch_91)?(. - _ebase_address):__vector_offset_default
 *(.vector_91)
                0x9d000d7c                . = ALIGN (0x4)
                0x000024bc                __vector_offset_92 = DEFINED (__vector_dispatch_92)?(. - _ebase_address):__vector_offset_default
 *(.vector_92)
                0x9d000d7c                . = ALIGN (0x4)
                0x000024bc                __vector_offset_93 = DEFINED (__vector_dispatch_93)?(. - _ebase_address):__vector_offset_default
 *(.vector_93)
                0x9d000d7c                . = ALIGN (0x4)
                0x000024bc                __vector_offset_94 = DEFINED (__vector_dispatch_94)?(. - _ebase_address):__vector_offset_default
 *(.vector_94)
                0x9d000d7c                . = ALIGN (0x4)
                0x000024bc                __vector_offset_95 = DEFINED (__vector_dispatch_95)?(. - _ebase_address):__vector_offset_default
 *(.vector_95)
                0x9d000d7c                . = ALIGN (0x4)
                0x000024bc                __vector_offset_96 = DEFINED (__vector_dispatch_96)?(. - _ebase_address):__vector_offset_default
 *(.vector_96)
                0x9d000d7c                . = ALIGN (0x4)
                0x000024bc                __vector_offset_97 = DEFINED (__vector_dispatch_97)?(. - _ebase_address):__vector_offset_default
 *(.vector_97)
                0x9d000d7c                . = ALIGN (0x4)
                0x000024bc                __vector_offset_98 = DEFINED (__vector_dispatch_98)?(. - _ebase_address):__vector_offset_default
 *(.vector_98)
                0x9d000d7c                . = ALIGN (0x4)
                0x000024bc                __vector_offset_99 = DEFINED (__vector_dispatch_99)?(. - _ebase_address):__vector_offset_default
 *(.vector_99)
                0x9d000d7c                . = ALIGN (0x4)
                0x000024bc                __vector_offset_100 = DEFINED (__vector_dispatch_100)?(. - _ebase_address):__vector_offset_default
 *(.vector_100)
                0x9d000d7c                . = ALIGN (0x4)
                0x000024bc                __vector_offset_101 = DEFINED (__vector_dispatch_101)?(. - _ebase_address):__vector_offset_default
 *(.vector_101)
                0x9d000d7c                . = ALIGN (0x4)
                0x000024bc                __vector_offset_102 = DEFINED (__vector_dispatch_102)?(. - _ebase_address):__vector_offset_default
 *(.vector_102)
                0x9d000d7c                . = ALIGN (0x4)
                0x000024bc                __vector_offset_103 = DEFINED (__vector_dispatch_103)?(. - _ebase_address):__vector_offset_default
 *(.vector_103)
                0x9d000d7c                . = ALIGN (0x4)
                0x000024bc                __vector_offset_104 = DEFINED (__vector_dispatch_104)?(. - _ebase_address):__vector_offset_default
 *(.vector_104)
                0x9d000d7c                . = ALIGN (0x4)
                0x000024bc                __vector_offset_105 = DEFINED (__vector_dispatch_105)?(. - _ebase_address):__vector_offset_default
 *(.vector_105)
                0x9d000d7c                . = ALIGN (0x4)
                0x000024bc                __vector_offset_106 = DEFINED (__vector_dispatch_106)?(. - _ebase_address):__vector_offset_default
 *(.vector_106)
                0x9d000d7c                . = ALIGN (0x4)
                0x000024bc                __vector_offset_107 = DEFINED (__vector_dispatch_107)?(. - _ebase_address):__vector_offset_default
 *(.vector_107)
                0x9d000d7c                . = ALIGN (0x4)
                0x000024bc                __vector_offset_108 = DEFINED (__vector_dispatch_108)?(. - _ebase_address):__vector_offset_default
 *(.vector_108)
                0x9d000d7c                . = ALIGN (0x4)
                0x000024bc                __vector_offset_109 = DEFINED (__vector_dispatch_109)?(. - _ebase_address):__vector_offset_default
 *(.vector_109)
                0x9d000d7c                . = ALIGN (0x4)
                0x000024bc                __vector_offset_110 = DEFINED (__vector_dispatch_110)?(. - _ebase_address):__vector_offset_default
 *(.vector_110)
                0x9d000d7c                . = ALIGN (0x4)
                0x000024bc                __vector_offset_111 = DEFINED (__vector_dispatch_111)?(. - _ebase_address):__vector_offset_default
 *(.vector_111)
                0x9d000d7c                . = ALIGN (0x4)
                0x000024bc                __vector_offset_112 = DEFINED (__vector_dispatch_112)?(. - _ebase_address):__vector_offset_default
 *(.vector_112)
                0x9d000d7c                . = ALIGN (0x4)
                0x000024bc                __vector_offset_113 = DEFINED (__vector_dispatch_113)?(. - _ebase_address):__vector_offset_default
 *(.vector_113)
                0x9d000d7c                . = ALIGN (0x4)
                0x000024bc                __vector_offset_114 = DEFINED (__vector_dispatch_114)?(. - _ebase_address):__vector_offset_default
 *(.vector_114)
                0x9d000d7c                . = ALIGN (0x4)
                0x000024bc                __vector_offset_115 = DEFINED (__vector_dispatch_115)?(. - _ebase_address):__vector_offset_default
 *(.vector_115)
                0x9d000d7c                . = ALIGN (0x4)
                0x000024bc                __vector_offset_116 = DEFINED (__vector_dispatch_116)?(. - _ebase_address):__vector_offset_default
 *(.vector_116)
                0x9d000d7c                . = ALIGN (0x4)
                0x000024bc                __vector_offset_117 = DEFINED (__vector_dispatch_117)?(. - _ebase_address):__vector_offset_default
 *(.vector_117)
                0x9d000d7c                . = ALIGN (0x4)
                0x000024bc                __vector_offset_118 = DEFINED (__vector_dispatch_118)?(. - _ebase_address):__vector_offset_default
 *(.vector_118)
                0x9d000d7c                . = ALIGN (0x4)
                0x000024bc                __vector_offset_119 = DEFINED (__vector_dispatch_119)?(. - _ebase_address):__vector_offset_default
 *(.vector_119)
                0x9d000d7c                . = ALIGN (0x4)
                0x000024bc                __vector_offset_120 = DEFINED (__vector_dispatch_120)?(. - _ebase_address):__vector_offset_default
 *(.vector_120)
                0x9d000d7c                . = ALIGN (0x4)
                0x000024bc                __vector_offset_121 = DEFINED (__vector_dispatch_121)?(. - _ebase_address):__vector_offset_default
 *(.vector_121)
                0x9d000d7c                . = ALIGN (0x4)
                0x000024bc                __vector_offset_122 = DEFINED (__vector_dispatch_122)?(. - _ebase_address):__vector_offset_default
 *(.vector_122)
                0x9d000d7c                . = ALIGN (0x4)
                0x000024bc                __vector_offset_123 = DEFINED (__vector_dispatch_123)?(. - _ebase_address):__vector_offset_default
 *(.vector_123)
                0x9d000d7c                . = ALIGN (0x4)
                0x000024bc                __vector_offset_124 = DEFINED (__vector_dispatch_124)?(. - _ebase_address):__vector_offset_default
 *(.vector_124)
                0x9d000d7c                . = ALIGN (0x4)
                0x000024bc                __vector_offset_125 = DEFINED (__vector_dispatch_125)?(. - _ebase_address):__vector_offset_default
 *(.vector_125)
                0x9d000d7c                . = ALIGN (0x4)
                0x000024bc                __vector_offset_126 = DEFINED (__vector_dispatch_126)?(. - _ebase_address):__vector_offset_default
 *(.vector_126)
                0x9d000d7c                . = ALIGN (0x4)
                0x000024bc                __vector_offset_127 = DEFINED (__vector_dispatch_127)?(. - _ebase_address):__vector_offset_default
 *(.vector_127)
                0x9d000d7c                . = ALIGN (0x4)
                0x000024bc                __vector_offset_128 = DEFINED (__vector_dispatch_128)?(. - _ebase_address):__vector_offset_default
 *(.vector_128)
                0x9d000d7c                . = ALIGN (0x4)
                0x000024bc                __vector_offset_129 = DEFINED (__vector_dispatch_129)?(. - _ebase_address):__vector_offset_default
 *(.vector_129)
                0x9d000d7c                . = ALIGN (0x4)
                0x000024bc                __vector_offset_130 = DEFINED (__vector_dispatch_130)?(. - _ebase_address):__vector_offset_default
 *(.vector_130)
                0x9d000d7c                . = ALIGN (0x4)
                0x000024bc                __vector_offset_131 = DEFINED (__vector_dispatch_131)?(. - _ebase_address):__vector_offset_default
 *(.vector_131)
                0x9d000d7c                . = ALIGN (0x4)
                0x00000d7c                __vector_offset_132 = DEFINED (__vector_dispatch_132)?(. - _ebase_address):__vector_offset_default
 *(.vector_132)
 .vector_132    0x9d000d7c      0x3e0 build/default/production/_ext/1171490990/interrupts_a.o
                0x9d000d7c                __vector_dispatch_132
                0x9d00115c                . = ALIGN (0x4)
                0x0000115c                __vector_offset_133 = DEFINED (__vector_dispatch_133)?(. - _ebase_address):__vector_offset_default
 *(.vector_133)
 .vector_133    0x9d00115c      0x3e0 build/default/production/_ext/1171490990/interrupts_a.o
                0x9d00115c                __vector_dispatch_133
                0x9d00153c                . = ALIGN (0x4)
                0x0000153c                __vector_offset_134 = DEFINED (__vector_dispatch_134)?(. - _ebase_address):__vector_offset_default
 *(.vector_134)
 .vector_134    0x9d00153c      0x3e0 build/default/production/_ext/1171490990/interrupts_a.o
                0x9d00153c                __vector_dispatch_134
                0x9d00191c                . = ALIGN (0x4)
                0x0000191c                __vector_offset_135 = DEFINED (__vector_dispatch_135)?(. - _ebase_address):__vector_offset_default
 *(.vector_135)
 .vector_135    0x9d00191c      0x3e0 build/default/production/_ext/1171490990/interrupts_a.o
                0x9d00191c                __vector_dispatch_135
                0x9d001cfc                . = ALIGN (0x4)
                0x000024bc                __vector_offset_136 = DEFINED (__vector_dispatch_136)?(. - _ebase_address):__vector_offset_default
 *(.vector_136)
                0x9d001cfc                . = ALIGN (0x4)
                0x000024bc                __vector_offset_137 = DEFINED (__vector_dispatch_137)?(. - _ebase_address):__vector_offset_default
 *(.vector_137)
                0x9d001cfc                . = ALIGN (0x4)
                0x000024bc                __vector_offset_138 = DEFINED (__vector_dispatch_138)?(. - _ebase_address):__vector_offset_default
 *(.vector_138)
                0x9d001cfc                . = ALIGN (0x4)
                0x000024bc                __vector_offset_139 = DEFINED (__vector_dispatch_139)?(. - _ebase_address):__vector_offset_default
 *(.vector_139)
                0x9d001cfc                . = ALIGN (0x4)
                0x000024bc                __vector_offset_140 = DEFINED (__vector_dispatch_140)?(. - _ebase_address):__vector_offset_default
 *(.vector_140)
                0x9d001cfc                . = ALIGN (0x4)
                0x000024bc                __vector_offset_141 = DEFINED (__vector_dispatch_141)?(. - _ebase_address):__vector_offset_default
 *(.vector_141)
                0x9d001cfc                . = ALIGN (0x4)
                0x000024bc                __vector_offset_142 = DEFINED (__vector_dispatch_142)?(. - _ebase_address):__vector_offset_default
 *(.vector_142)
                0x9d001cfc                . = ALIGN (0x4)
                0x000024bc                __vector_offset_143 = DEFINED (__vector_dispatch_143)?(. - _ebase_address):__vector_offset_default
 *(.vector_143)
                0x9d001cfc                . = ALIGN (0x4)
                0x000024bc                __vector_offset_144 = DEFINED (__vector_dispatch_144)?(. - _ebase_address):__vector_offset_default
 *(.vector_144)
                0x9d001cfc                . = ALIGN (0x4)
                0x000024bc                __vector_offset_145 = DEFINED (__vector_dispatch_145)?(. - _ebase_address):__vector_offset_default
 *(.vector_145)
                0x9d001cfc                . = ALIGN (0x4)
                0x000024bc                __vector_offset_146 = DEFINED (__vector_dispatch_146)?(. - _ebase_address):__vector_offset_default
 *(.vector_146)
                0x9d001cfc                . = ALIGN (0x4)
                0x000024bc                __vector_offset_147 = DEFINED (__vector_dispatch_147)?(. - _ebase_address):__vector_offset_default
 *(.vector_147)
                0x9d001cfc                . = ALIGN (0x4)
                0x000024bc                __vector_offset_148 = DEFINED (__vector_dispatch_148)?(. - _ebase_address):__vector_offset_default
 *(.vector_148)
                0x9d001cfc                . = ALIGN (0x4)
                0x000024bc                __vector_offset_149 = DEFINED (__vector_dispatch_149)?(. - _ebase_address):__vector_offset_default
 *(.vector_149)
                0x9d001cfc                . = ALIGN (0x4)
                0x000024bc                __vector_offset_150 = DEFINED (__vector_dispatch_150)?(. - _ebase_address):__vector_offset_default
 *(.vector_150)
                0x9d001cfc                . = ALIGN (0x4)
                0x000024bc                __vector_offset_151 = DEFINED (__vector_dispatch_151)?(. - _ebase_address):__vector_offset_default
 *(.vector_151)
                0x9d001cfc                . = ALIGN (0x4)
                0x000024bc                __vector_offset_152 = DEFINED (__vector_dispatch_152)?(. - _ebase_address):__vector_offset_default
 *(.vector_152)
                0x9d001cfc                . = ALIGN (0x4)
                0x000024bc                __vector_offset_153 = DEFINED (__vector_dispatch_153)?(. - _ebase_address):__vector_offset_default
 *(.vector_153)
                0x9d001cfc                . = ALIGN (0x4)
                0x000024bc                __vector_offset_154 = DEFINED (__vector_dispatch_154)?(. - _ebase_address):__vector_offset_default
 *(.vector_154)
                0x9d001cfc                . = ALIGN (0x4)
                0x000024bc                __vector_offset_155 = DEFINED (__vector_dispatch_155)?(. - _ebase_address):__vector_offset_default
 *(.vector_155)
                0x9d001cfc                . = ALIGN (0x4)
                0x000024bc                __vector_offset_156 = DEFINED (__vector_dispatch_156)?(. - _ebase_address):__vector_offset_default
 *(.vector_156)
                0x9d001cfc                . = ALIGN (0x4)
                0x000024bc                __vector_offset_157 = DEFINED (__vector_dispatch_157)?(. - _ebase_address):__vector_offset_default
 *(.vector_157)
                0x9d001cfc                . = ALIGN (0x4)
                0x000024bc                __vector_offset_158 = DEFINED (__vector_dispatch_158)?(. - _ebase_address):__vector_offset_default
 *(.vector_158)
                0x9d001cfc                . = ALIGN (0x4)
                0x000024bc                __vector_offset_159 = DEFINED (__vector_dispatch_159)?(. - _ebase_address):__vector_offset_default
 *(.vector_159)
                0x9d001cfc                . = ALIGN (0x4)
                0x000024bc                __vector_offset_160 = DEFINED (__vector_dispatch_160)?(. - _ebase_address):__vector_offset_default
 *(.vector_160)
                0x9d001cfc                . = ALIGN (0x4)
                0x000024bc                __vector_offset_161 = DEFINED (__vector_dispatch_161)?(. - _ebase_address):__vector_offset_default
 *(.vector_161)
                0x9d001cfc                . = ALIGN (0x4)
                0x000024bc                __vector_offset_162 = DEFINED (__vector_dispatch_162)?(. - _ebase_address):__vector_offset_default
 *(.vector_162)
                0x9d001cfc                . = ALIGN (0x4)
                0x000024bc                __vector_offset_163 = DEFINED (__vector_dispatch_163)?(. - _ebase_address):__vector_offset_default
 *(.vector_163)
                0x9d001cfc                . = ALIGN (0x4)
                0x00001cfc                __vector_offset_164 = DEFINED (__vector_dispatch_164)?(. - _ebase_address):__vector_offset_default
 *(.vector_164)
 .vector_164    0x9d001cfc      0x3e0 build/default/production/_ext/1171490990/interrupts_a.o
                0x9d001cfc                __vector_dispatch_164
                0x9d0020dc                . = ALIGN (0x4)
                0x000020dc                __vector_offset_165 = DEFINED (__vector_dispatch_165)?(. - _ebase_address):__vector_offset_default
 *(.vector_165)
 .vector_165    0x9d0020dc      0x3e0 build/default/production/_ext/1171490990/interrupts_a.o
                0x9d0020dc                __vector_dispatch_165
                0x9d0024bc                . = ALIGN (0x4)
                0x000024bc                __vector_offset_166 = DEFINED (__vector_dispatch_166)?(. - _ebase_address):__vector_offset_default
 *(.vector_166)
                0x9d0024bc                . = ALIGN (0x4)
                0x000024bc                __vector_offset_167 = DEFINED (__vector_dispatch_167)?(. - _ebase_address):__vector_offset_default
 *(.vector_167)
                0x9d0024bc                . = ALIGN (0x4)
                0x000024bc                __vector_offset_168 = DEFINED (__vector_dispatch_168)?(. - _ebase_address):__vector_offset_default
 *(.vector_168)
                0x9d0024bc                . = ALIGN (0x4)
                0x000024bc                __vector_offset_169 = DEFINED (__vector_dispatch_169)?(. - _ebase_address):__vector_offset_default
 *(.vector_169)
                0x9d0024bc                . = ALIGN (0x4)
                0x000024bc                __vector_offset_170 = DEFINED (__vector_dispatch_170)?(. - _ebase_address):__vector_offset_default
 *(.vector_170)
                0x9d0024bc                . = ALIGN (0x4)
                0x000024bc                __vector_offset_171 = DEFINED (__vector_dispatch_171)?(. - _ebase_address):__vector_offset_default
 *(.vector_171)
                0x9d0024bc                . = ALIGN (0x4)
                0x000024bc                __vector_offset_172 = DEFINED (__vector_dispatch_172)?(. - _ebase_address):__vector_offset_default
 *(.vector_172)
                0x9d0024bc                . = ALIGN (0x4)
                0x000024bc                __vector_offset_173 = DEFINED (__vector_dispatch_173)?(. - _ebase_address):__vector_offset_default
 *(.vector_173)
                0x9d0024bc                . = ALIGN (0x4)
                0x000024bc                __vector_offset_174 = DEFINED (__vector_dispatch_174)?(. - _ebase_address):__vector_offset_default
 *(.vector_174)
                0x9d0024bc                . = ALIGN (0x4)
                0x000024bc                __vector_offset_175 = DEFINED (__vector_dispatch_175)?(. - _ebase_address):__vector_offset_default
 *(.vector_175)
                0x9d0024bc                . = ALIGN (0x4)
                0x000024bc                __vector_offset_176 = DEFINED (__vector_dispatch_176)?(. - _ebase_address):__vector_offset_default
 *(.vector_176)
                0x9d0024bc                . = ALIGN (0x4)
                0x000024bc                __vector_offset_177 = DEFINED (__vector_dispatch_177)?(. - _ebase_address):__vector_offset_default
 *(.vector_177)
                0x9d0024bc                . = ALIGN (0x4)
                0x000024bc                __vector_offset_178 = DEFINED (__vector_dispatch_178)?(. - _ebase_address):__vector_offset_default
 *(.vector_178)
                0x9d0024bc                . = ALIGN (0x4)
                0x000024bc                __vector_offset_179 = DEFINED (__vector_dispatch_179)?(. - _ebase_address):__vector_offset_default
 *(.vector_179)
                0x9d0024bc                . = ALIGN (0x4)
                0x000024bc                __vector_offset_180 = DEFINED (__vector_dispatch_180)?(. - _ebase_address):__vector_offset_default
 *(.vector_180)
                0x9d0024bc                . = ALIGN (0x4)
                0x000024bc                __vector_offset_181 = DEFINED (__vector_dispatch_181)?(. - _ebase_address):__vector_offset_default
 *(.vector_181)
                0x9d0024bc                . = ALIGN (0x4)
                0x000024bc                __vector_offset_182 = DEFINED (__vector_dispatch_182)?(. - _ebase_address):__vector_offset_default
 *(.vector_182)
                0x9d0024bc                . = ALIGN (0x4)
                0x000024bc                __vector_offset_183 = DEFINED (__vector_dispatch_183)?(. - _ebase_address):__vector_offset_default
 *(.vector_183)
                0x9d0024bc                . = ALIGN (0x4)
                0x000024bc                __vector_offset_184 = DEFINED (__vector_dispatch_184)?(. - _ebase_address):__vector_offset_default
 *(.vector_184)
                0x9d0024bc                . = ALIGN (0x4)
                0x000024bc                __vector_offset_185 = DEFINED (__vector_dispatch_185)?(. - _ebase_address):__vector_offset_default
 *(.vector_185)
                0x9d0024bc                . = ALIGN (0x4)
                0x000024bc                __vector_offset_186 = DEFINED (__vector_dispatch_186)?(. - _ebase_address):__vector_offset_default
 *(.vector_186)
                0x9d0024bc                . = ALIGN (0x4)
                0x000024bc                __vector_offset_187 = DEFINED (__vector_dispatch_187)?(. - _ebase_address):__vector_offset_default
 *(.vector_187)
                0x9d0024bc                . = ALIGN (0x4)
                0x000024bc                __vector_offset_188 = DEFINED (__vector_dispatch_188)?(. - _ebase_address):__vector_offset_default
 *(.vector_188)
                0x9d0024bc                . = ALIGN (0x4)
                0x000024bc                __vector_offset_189 = DEFINED (__vector_dispatch_189)?(. - _ebase_address):__vector_offset_default
 *(.vector_189)
                0x9d0024bc                . = ALIGN (0x4)
                0x000024bc                __vector_offset_190 = DEFINED (__vector_dispatch_190)?(. - _ebase_address):__vector_offset_default
 *(.vector_190)
                0x9d0024bc                . = ALIGN (0x4)
                0x000024bc                __vector_offset_191 = DEFINED (__vector_dispatch_191)?(. - _ebase_address):__vector_offset_default
 *(.vector_191)
                0x9d0024bc                . = ALIGN (0x4)
                0x000024bc                __vector_offset_192 = DEFINED (__vector_dispatch_192)?(. - _ebase_address):__vector_offset_default
 *(.vector_192)
                0x9d0024bc                . = ALIGN (0x4)
                0x000024bc                __vector_offset_193 = DEFINED (__vector_dispatch_193)?(. - _ebase_address):__vector_offset_default
 *(.vector_193)
                0x9d0024bc                . = ALIGN (0x4)
                0x000024bc                __vector_offset_194 = DEFINED (__vector_dispatch_194)?(. - _ebase_address):__vector_offset_default
 *(.vector_194)
                0x9d0024bc                . = ALIGN (0x4)
                0x000024bc                __vector_offset_195 = DEFINED (__vector_dispatch_195)?(. - _ebase_address):__vector_offset_default
 *(.vector_195)
                0x9d0024bc                . = ALIGN (0x4)
                0x000024bc                __vector_offset_196 = DEFINED (__vector_dispatch_196)?(. - _ebase_address):__vector_offset_default
 *(.vector_196)
                0x9d0024bc                . = ALIGN (0x4)
                0x000024bc                __vector_offset_197 = DEFINED (__vector_dispatch_197)?(. - _ebase_address):__vector_offset_default
 *(.vector_197)
                0x9d0024bc                . = ALIGN (0x4)
                0x000024bc                __vector_offset_198 = DEFINED (__vector_dispatch_198)?(. - _ebase_address):__vector_offset_default
 *(.vector_198)
                0x9d0024bc                . = ALIGN (0x4)
                0x000024bc                __vector_offset_199 = DEFINED (__vector_dispatch_199)?(. - _ebase_address):__vector_offset_default
 *(.vector_199)
                0x9d0024bc                . = ALIGN (0x4)
                0x000024bc                __vector_offset_200 = DEFINED (__vector_dispatch_200)?(. - _ebase_address):__vector_offset_default
 *(.vector_200)
                0x9d0024bc                . = ALIGN (0x4)
                0x000024bc                __vector_offset_201 = DEFINED (__vector_dispatch_201)?(. - _ebase_address):__vector_offset_default
 *(.vector_201)
                0x9d0024bc                . = ALIGN (0x4)
                0x000024bc                __vector_offset_202 = DEFINED (__vector_dispatch_202)?(. - _ebase_address):__vector_offset_default
 *(.vector_202)
                0x9d0024bc                . = ALIGN (0x4)
                0x000024bc                __vector_offset_203 = DEFINED (__vector_dispatch_203)?(. - _ebase_address):__vector_offset_default
 *(.vector_203)
                0x9d0024bc                . = ALIGN (0x4)
                0x000024bc                __vector_offset_204 = DEFINED (__vector_dispatch_204)?(. - _ebase_address):__vector_offset_default
 *(.vector_204)
                0x9d0024bc                . = ALIGN (0x4)
                0x000024bc                __vector_offset_205 = DEFINED (__vector_dispatch_205)?(. - _ebase_address):__vector_offset_default
 *(.vector_205)
                0x9d0024bc                . = ALIGN (0x4)
                0x000024bc                __vector_offset_206 = DEFINED (__vector_dispatch_206)?(. - _ebase_address):__vector_offset_default
 *(.vector_206)
                0x9d0024bc                . = ALIGN (0x4)
                0x000024bc                __vector_offset_207 = DEFINED (__vector_dispatch_207)?(. - _ebase_address):__vector_offset_default
 *(.vector_207)
                0x9d0024bc                . = ALIGN (0x4)
                0x000024bc                __vector_offset_208 = DEFINED (__vector_dispatch_208)?(. - _ebase_address):__vector_offset_default
 *(.vector_208)
                0x9d0024bc                . = ALIGN (0x4)
                0x000024bc                __vector_offset_209 = DEFINED (__vector_dispatch_209)?(. - _ebase_address):__vector_offset_default
 *(.vector_209)
                0x9d0024bc                . = ALIGN (0x4)
                0x000024bc                __vector_offset_210 = DEFINED (__vector_dispatch_210)?(. - _ebase_address):__vector_offset_default
 *(.vector_210)
                0x9d0024bc                . = ALIGN (0x4)
                0x000024bc                __vector_offset_211 = DEFINED (__vector_dispatch_211)?(. - _ebase_address):__vector_offset_default
 *(.vector_211)
                0x9d0024bc                . = ALIGN (0x4)
                0x000024bc                __vector_offset_212 = DEFINED (__vector_dispatch_212)?(. - _ebase_address):__vector_offset_default
 *(.vector_212)
                0x9d0024bc                . = ALIGN (0x4)
                0x000024bc                __vector_offset_213 = DEFINED (__vector_dispatch_213)?(. - _ebase_address):__vector_offset_default
 *(.vector_213)
                0x9d0024bc                . = ALIGN (0x4)
                0x000024bc                __vector_offset_214 = DEFINED (__vector_dispatch_214)?(. - _ebase_address):__vector_offset_default
 *(.vector_214)
                0x9d0024bc                . = ALIGN (0x4)
                0x000024bc                __vector_offset_215 = DEFINED (__vector_dispatch_215)?(. - _ebase_address):__vector_offset_default
 *(.vector_215)
                0x9d0024bc                . = ALIGN (0x4)
                0x000024bc                __vector_offset_216 = DEFINED (__vector_dispatch_216)?(. - _ebase_address):__vector_offset_default
 *(.vector_216)
                0x9d0024bc                . = ALIGN (0x4)
                0x000024bc                __vector_offset_217 = DEFINED (__vector_dispatch_217)?(. - _ebase_address):__vector_offset_default
 *(.vector_217)
                0x9d0024bc                . = ALIGN (0x4)
                0x000024bc                __vector_offset_218 = DEFINED (__vector_dispatch_218)?(. - _ebase_address):__vector_offset_default
 *(.vector_218)
                0x9d0024bc                . = ALIGN (0x4)
                0x000024bc                __vector_offset_219 = DEFINED (__vector_dispatch_219)?(. - _ebase_address):__vector_offset_default
 *(.vector_219)
                0x9d0024bc                . = ALIGN (0x4)
                0x000024bc                __vector_offset_220 = DEFINED (__vector_dispatch_220)?(. - _ebase_address):__vector_offset_default
 *(.vector_220)
                0x9d0024bc                . = ALIGN (0x4)
                0x000024bc                __vector_offset_221 = DEFINED (__vector_dispatch_221)?(. - _ebase_address):__vector_offset_default
 *(.vector_221)
                0x9d0024bc                . = ALIGN (0x4)
                0x000024bc                __vector_offset_222 = DEFINED (__vector_dispatch_222)?(. - _ebase_address):__vector_offset_default
 *(.vector_222)
                0x9d0024bc                . = ALIGN (0x4)
                0x000024bc                __vector_offset_223 = DEFINED (__vector_dispatch_223)?(. - _ebase_address):__vector_offset_default
 *(.vector_223)
                0x9d0024bc                . = ALIGN (0x4)
                0x000024bc                __vector_offset_224 = DEFINED (__vector_dispatch_224)?(. - _ebase_address):__vector_offset_default
 *(.vector_224)
                0x9d0024bc                . = ALIGN (0x4)
                0x000024bc                __vector_offset_225 = DEFINED (__vector_dispatch_225)?(. - _ebase_address):__vector_offset_default
 *(.vector_225)
                0x9d0024bc                . = ALIGN (0x4)
                0x000024bc                __vector_offset_226 = DEFINED (__vector_dispatch_226)?(. - _ebase_address):__vector_offset_default
 *(.vector_226)
                0x9d0024bc                . = ALIGN (0x4)
                0x000024bc                __vector_offset_227 = DEFINED (__vector_dispatch_227)?(. - _ebase_address):__vector_offset_default
 *(.vector_227)
                0x9d0024bc                . = ALIGN (0x4)
                0x000024bc                __vector_offset_228 = DEFINED (__vector_dispatch_228)?(. - _ebase_address):__vector_offset_default
 *(.vector_228)
                0x9d0024bc                . = ALIGN (0x4)
                0x000024bc                __vector_offset_229 = DEFINED (__vector_dispatch_229)?(. - _ebase_address):__vector_offset_default
 *(.vector_229)
                0x9d0024bc                . = ALIGN (0x4)
                0x000024bc                __vector_offset_230 = DEFINED (__vector_dispatch_230)?(. - _ebase_address):__vector_offset_default
 *(.vector_230)
                0x9d0024bc                . = ALIGN (0x4)
                0x000024bc                __vector_offset_231 = DEFINED (__vector_dispatch_231)?(. - _ebase_address):__vector_offset_default
 *(.vector_231)
                0x9d0024bc                . = ALIGN (0x4)
                0x000024bc                __vector_offset_232 = DEFINED (__vector_dispatch_232)?(. - _ebase_address):__vector_offset_default
 *(.vector_232)
                0x9d0024bc                . = ALIGN (0x4)
                0x000024bc                __vector_offset_233 = DEFINED (__vector_dispatch_233)?(. - _ebase_address):__vector_offset_default
 *(.vector_233)
                0x9d0024bc                . = ALIGN (0x4)
                0x000024bc                __vector_offset_234 = DEFINED (__vector_dispatch_234)?(. - _ebase_address):__vector_offset_default
 *(.vector_234)
                0x9d0024bc                . = ALIGN (0x4)
                0x000024bc                __vector_offset_235 = DEFINED (__vector_dispatch_235)?(. - _ebase_address):__vector_offset_default
 *(.vector_235)
                0x9d0024bc                . = ALIGN (0x4)
                0x000024bc                __vector_offset_236 = DEFINED (__vector_dispatch_236)?(. - _ebase_address):__vector_offset_default
 *(.vector_236)
                0x9d0024bc                . = ALIGN (0x4)
                0x000024bc                __vector_offset_237 = DEFINED (__vector_dispatch_237)?(. - _ebase_address):__vector_offset_default
 *(.vector_237)
                0x9d0024bc                . = ALIGN (0x4)
                0x000024bc                __vector_offset_238 = DEFINED (__vector_dispatch_238)?(. - _ebase_address):__vector_offset_default
 *(.vector_238)
                0x9d0024bc                . = ALIGN (0x4)
                0x000024bc                __vector_offset_239 = DEFINED (__vector_dispatch_239)?(. - _ebase_address):__vector_offset_default
 *(.vector_239)
                0x9d0024bc                . = ALIGN (0x4)
                0x000024bc                __vector_offset_240 = DEFINED (__vector_dispatch_240)?(. - _ebase_address):__vector_offset_default
 *(.vector_240)
                0x9d0024bc                . = ALIGN (0x4)
                0x000024bc                __vector_offset_241 = DEFINED (__vector_dispatch_241)?(. - _ebase_address):__vector_offset_default
 *(.vector_241)
                0x9d0024bc                . = ALIGN (0x4)
                0x000024bc                __vector_offset_242 = DEFINED (__vector_dispatch_242)?(. - _ebase_address):__vector_offset_default
 *(.vector_242)
                0x9d0024bc                . = ALIGN (0x4)
                0x000024bc                __vector_offset_243 = DEFINED (__vector_dispatch_243)?(. - _ebase_address):__vector_offset_default
 *(.vector_243)
                0x9d0024bc                . = ALIGN (0x4)
                0x000024bc                __vector_offset_244 = DEFINED (__vector_dispatch_244)?(. - _ebase_address):__vector_offset_default
 *(.vector_244)
                0x9d0024bc                . = ALIGN (0x4)
                0x000024bc                __vector_offset_245 = DEFINED (__vector_dispatch_245)?(. - _ebase_address):__vector_offset_default
 *(.vector_245)
                0x9d0024bc                . = ALIGN (0x4)
                0x000024bc                __vector_offset_246 = DEFINED (__vector_dispatch_246)?(. - _ebase_address):__vector_offset_default
 *(.vector_246)
                0x9d0024bc                . = ALIGN (0x4)
                0x000024bc                __vector_offset_247 = DEFINED (__vector_dispatch_247)?(. - _ebase_address):__vector_offset_default
 *(.vector_247)
                0x9d0024bc                . = ALIGN (0x4)
                0x000024bc                __vector_offset_248 = DEFINED (__vector_dispatch_248)?(. - _ebase_address):__vector_offset_default
 *(.vector_248)
                0x9d0024bc                . = ALIGN (0x4)
                0x000024bc                __vector_offset_249 = DEFINED (__vector_dispatch_249)?(. - _ebase_address):__vector_offset_default
 *(.vector_249)
                0x9d0024bc                . = ALIGN (0x4)
                0x000024bc                __vector_offset_250 = DEFINED (__vector_dispatch_250)?(. - _ebase_address):__vector_offset_default
 *(.vector_250)
                0x9d0024bc                . = ALIGN (0x4)
                0x000024bc                __vector_offset_251 = DEFINED (__vector_dispatch_251)?(. - _ebase_address):__vector_offset_default
 *(.vector_251)
                0x9d0024bc                . = ALIGN (0x4)
                0x000024bc                __vector_offset_252 = DEFINED (__vector_dispatch_252)?(. - _ebase_address):__vector_offset_default
 *(.vector_252)
                0x9d0024bc                . = ALIGN (0x4)
                0x000024bc                __vector_offset_253 = DEFINED (__vector_dispatch_253)?(. - _ebase_address):__vector_offset_default
 *(.vector_253)
                0x9d0024bc                . = ALIGN (0x4)
                0x000024bc                __vector_offset_254 = DEFINED (__vector_dispatch_254)?(. - _ebase_address):__vector_offset_default
 *(.vector_254)
                0x9d0024bc                . = ALIGN (0x4)
                0x000024bc                __vector_offset_255 = DEFINED (__vector_dispatch_255)?(. - _ebase_address):__vector_offset_default
 *(.vector_255)
                0x9d0024bc                . = ALIGN (0x4)
                0x000024bc                __vector_offset_default = (. - _ebase_address)
 *(.vector_default)
 .vector_default
                0x9d0024bc       0x48 c:/program files/microchip/xc32/v2.50/bin/bin/../../lib/gcc/pic32mx/4.8.3/../../../../pic32mx/lib/fpu64\libpic32.a(defaultinterrupt.o)
                0x9d0024bc                _DefaultInterrupt

.startup
 *(.startup)

.text           0x9d002504        0x0
 *(.stub .gnu.linkonce.t.*)
 *(.text.*personality*)
 *(.mips16.fn.*)
 *(.mips16.call.*)
 *(.gnu.warning)
                0x9d002504                . = ALIGN (0x4)

.init           0x9d002504        0x0
 *crti.o(.init)
 *crtbegin.o(.init)
 *(EXCLUDE_FILE(*crtn.o *crtend?.o *crtend.o) .init)
 *crtend.o(.init)
 *crtn.o(.init)
                0x9d002504                . = ALIGN (0x4)

.fini           0x9d002504        0x0
 *(.fini)
                0x9d002504                . = ALIGN (0x4)

.preinit_array  0x9d002504        0x0
                0x9d002504                PROVIDE (__preinit_array_start, .)
 *(.preinit_array)
                0x9d002504                PROVIDE (__preinit_array_end, .)
                0x9d002504                . = ALIGN (0x4)

.init_array     0x9d002504        0x0
                0x9d002504                PROVIDE (__init_array_start, .)
 *(SORT(.init_array.*))
 *(.init_array)
                0x9d002504                PROVIDE (__init_array_end, .)
                0x9d002504                . = ALIGN (0x4)

.fini_array     0x9d002504        0x0
                0x9d002504                PROVIDE (__fini_array_start, .)
 *(SORT(.fini_array.*))
 *(.fini_array)
                0x9d002504                PROVIDE (__fini_array_end, .)
                0x9d002504                . = ALIGN (0x4)

.ctors          0x9d002504        0x0
 *crtbegin.o(.ctors)
 *crtbegin?.o(.ctors)
 *(EXCLUDE_FILE(*crtend?.o *crtend.o) .ctors)
 *(SORT(.ctors.*))
 *(.ctors)
                0x9d002504                . = ALIGN (0x4)

.dtors          0x9d002504        0x0
 *crtbegin.o(.dtors)
 *crtbegin?.o(.dtors)
 *(EXCLUDE_FILE(*crtend?.o *crtend.o) .dtors)
 *(SORT(.dtors.*))
 *(.dtors)
                0x9d002504                . = ALIGN (0x4)

.rodata         0x9d002504        0x0
 *(.gnu.linkonce.r.*)
 *(.rodata1)
                0x9d002504                . = ALIGN (0x4)

.sdata2         0x9fc004b0        0x0
 *(.sdata2 .sdata2.* .gnu.linkonce.s2.*)
                0x9fc004b0                . = ALIGN (0x4)

.sbss2          0x9fc004b0        0x0
 *(.sbss2 .sbss2.* .gnu.linkonce.sb2.*)
                0x9fc004b0                . = ALIGN (0x4)

.eh_frame_hdr
 *(.eh_frame_hdr)
                0x9fc004b0                . = ALIGN (0x4)

.eh_frame
 *(.eh_frame)
                0x9fc004b0                . = ALIGN (0x4)

.gcc_except_table
 *(.gcc_except_table .gcc_except_table.*)
                0x9fc004b0                . = ALIGN (0x4)

.dbg_data       0x80000000        0x0
                0x80000000                . = (. + DEFINED (_DEBUGGER)?0x200:0x0)
                0x80000000                . = (. + DEFINED (_DEBUGGER)?0x80:0x0)
                0x80000000                . = (. + DEFINED (_DEBUGGER)?0x100:0x0)

.jcr            0x80000000        0x0
 *(.jcr)
                0x80000000                . = ALIGN (0x4)

.eh_frame
 *(.eh_frame)
                0x80000000                . = ALIGN (0x4)

.gcc_except_table
 *(.gcc_except_table .gcc_except_table.*)
                0x80000000                . = ALIGN (0x4)

.persist        0x80000000        0x0
                0x80000000                _persist_begin = .
 *(.persist .persist.*)
                0x80000000                . = ALIGN (0x4)
                0x80000000                _persist_end = .

.data           0x80000000        0x0
 *(.gnu.linkonce.d.*)
 *(.data1)
                0x80000000                . = ALIGN (0x4)
                0x80000000                . = .
                0x80007ff0                _gp = (ALIGN (0x10) + 0x7ff0)

.got            0x80000000        0x0
 *(.got.plt)
 *(.got)
                0x80000000                . = ALIGN (0x4)

.sdata          0x80000000       0x2c
                0x80000000                _sdata_begin = .
 *(.sdata .sdata.* .gnu.linkonce.s.*)
 .sdata.gSysTimeTokenCount.gSysTimeTokenCount
                0x80000000        0x2 build/default/production/_ext/101884895/sys_time.o
 *fill*         0x80000002        0x2 
 .sdata.uxInterruptNesting.uxInterruptNesting
                0x80000004        0x4 build/default/production/_ext/951553246/port.o
                0x80000004                uxInterruptNesting
 .sdata         0x80000008       0x24 c:/program files/microchip/xc32/v2.50/bin/bin/../../lib/gcc/pic32mx/4.8.3/../../../../pic32mx/lib/fpu64\libpic32.a(pic32_init_cache.o)
                0x80000008                __pic32_icache_size
                0x8000000c                __pic32_icache_linesize
                0x80000010                __pic32_icache_ways
                0x80000014                __pic32_dcache_size
                0x80000018                __pic32_dcache_linesize
                0x8000001c                __pic32_dcache_ways
                0x80000020                __pic32_scache_size
                0x80000024                __pic32_scache_linesize
                0x80000028                __pic32_scache_ways
                0x8000002c                . = ALIGN (0x4)
                0x8000002c                _sdata_end = .

.lit8
 *(.lit8)

.lit4
 *(.lit4)
                0x8000002c                . = ALIGN (0x4)
                0x8000002c                _data_end = .
                0x8000002c                _bss_begin = .

.sbss           0x8000002c       0xac
                0x8000002c                _sbss_begin = .
 *(.dynsbss)
 *(.sbss .sbss.* .gnu.linkonce.sb.*)
 .sbss.isExclusiveUseMutexAcquired.31461.isExclusiveUseMutexAcquired
                0x8000002c        0x1 build/default/production/_ext/2070931557/drv_spi.o
 *fill*         0x8000002d        0x3 
 .sbss.coreTmr.coreTmr
                0x80000030        0x8 build/default/production/_ext/1249264884/plib_coretimer.o
 .sbss.FatFs.FatFs
                0x80000038        0x4 build/default/production/_ext/411819097/ff.o
 .sbss.Fsid.Fsid
                0x8000003c        0x2 build/default/production/_ext/411819097/ff.o
 .sbss.CurrVol.CurrVol
                0x8000003e        0x1 build/default/production/_ext/411819097/ff.o
 .sbss.startupflag.startupflag
                0x8000003f        0x1 build/default/production/_ext/1269487135/sys_fs_fat_interface.o
 .sbss.gSYSFSObj.gSYSFSObj
                0x80000040        0x8 build/default/production/_ext/1269487135/sys_fs.o
 .sbss.gSYSFSCurrentMountPoint.gSYSFSCurrentMountPoint
                0x80000048        0x8 build/default/production/_ext/1269487135/sys_fs.o
 .sbss.gSysFsMutex.gSysFsMutex
                0x80000050        0x4 build/default/production/_ext/1269487135/sys_fs.o
 .sbss.errorValue.errorValue
                0x80000054        0x4 build/default/production/_ext/1269487135/sys_fs.o
 .sbss.gUSBDeviceCdcCommonDataObj.gUSBDeviceCdcCommonDataObj
                0x80000058        0x8 build/default/production/_ext/308758920/usb_device_cdc.o
 .sbss.exception_address.exception_address
                0x80000060        0x4 build/default/production/_ext/1171490990/exceptions.o
 .sbss.exception_code.exception_code
                0x80000064        0x4 build/default/production/_ext/1171490990/exceptions.o
 .sbss.xStart.xStart
                0x80000068        0x8 build/default/production/_ext/1665200909/heap_4.o
 .sbss.pxEnd.pxEnd
                0x80000070        0x4 build/default/production/_ext/1665200909/heap_4.o
 .sbss.xFreeBytesRemaining.xFreeBytesRemaining
                0x80000074        0x4 build/default/production/_ext/1665200909/heap_4.o
 .sbss.xMinimumEverFreeBytesRemaining.xMinimumEverFreeBytesRemaining
                0x80000078        0x4 build/default/production/_ext/1665200909/heap_4.o
 .sbss.xNumberOfSuccessfulAllocations.xNumberOfSuccessfulAllocations
                0x8000007c        0x4 build/default/production/_ext/1665200909/heap_4.o
 .sbss.xNumberOfSuccessfulFrees.xNumberOfSuccessfulFrees
                0x80000080        0x4 build/default/production/_ext/1665200909/heap_4.o
 .sbss.uxSavedTaskStackPointer.uxSavedTaskStackPointer
                0x80000084        0x4 build/default/production/_ext/951553246/port.o
                0x80000084                uxSavedTaskStackPointer
 .sbss.ulTaskHasFPUContext.ulTaskHasFPUContext
                0x80000088        0x4 build/default/production/_ext/951553246/port.o
                0x80000088                ulTaskHasFPUContext
 .sbss.pxCurrentTCB.pxCurrentTCB
                0x8000008c        0x4 build/default/production/_ext/404212886/FreeRTOS_tasks.o
                0x8000008c                pxCurrentTCB
 .sbss.pxDelayedTaskList.pxDelayedTaskList
                0x80000090        0x4 build/default/production/_ext/404212886/FreeRTOS_tasks.o
 .sbss.pxOverflowDelayedTaskList.pxOverflowDelayedTaskList
                0x80000094        0x4 build/default/production/_ext/404212886/FreeRTOS_tasks.o
 .sbss.uxDeletedTasksWaitingCleanUp.uxDeletedTasksWaitingCleanUp
                0x80000098        0x4 build/default/production/_ext/404212886/FreeRTOS_tasks.o
 .sbss.uxCurrentNumberOfTasks.uxCurrentNumberOfTasks
                0x8000009c        0x4 build/default/production/_ext/404212886/FreeRTOS_tasks.o
 .sbss.xTickCount.xTickCount
                0x800000a0        0x4 build/default/production/_ext/404212886/FreeRTOS_tasks.o
 .sbss.uxTopReadyPriority.uxTopReadyPriority
                0x800000a4        0x4 build/default/production/_ext/404212886/FreeRTOS_tasks.o
 .sbss.xSchedulerRunning.xSchedulerRunning
                0x800000a8        0x4 build/default/production/_ext/404212886/FreeRTOS_tasks.o
 .sbss.xPendedTicks.xPendedTicks
                0x800000ac        0x4 build/default/production/_ext/404212886/FreeRTOS_tasks.o
 .sbss.xYieldPending.xYieldPending
                0x800000b0        0x4 build/default/production/_ext/404212886/FreeRTOS_tasks.o
 .sbss.xNumOfOverflows.xNumOfOverflows
                0x800000b4        0x4 build/default/production/_ext/404212886/FreeRTOS_tasks.o
 .sbss.uxTaskNumber.uxTaskNumber
                0x800000b8        0x4 build/default/production/_ext/404212886/FreeRTOS_tasks.o
 .sbss.xNextTaskUnblockTime.xNextTaskUnblockTime
                0x800000bc        0x4 build/default/production/_ext/404212886/FreeRTOS_tasks.o
 .sbss.xIdleTaskHandle.xIdleTaskHandle
                0x800000c0        0x4 build/default/production/_ext/404212886/FreeRTOS_tasks.o
 .sbss.uxSchedulerSuspended.uxSchedulerSuspended
                0x800000c4        0x4 build/default/production/_ext/404212886/FreeRTOS_tasks.o
 .sbss.blockAppTask.36333.blockAppTask
                0x800000c8        0x1 build/default/production/_ext/1360937237/app_freertos.o
 *(.scommon)
 *fill*         0x800000c9        0x3 
 .scommon       0x800000cc        0x2 build/default/production/_ext/1269487135/sys_fs_media_manager.o
                0x800000cc                VolToPart
 *fill*         0x800000ce        0x2 
 .scommon       0x800000d0        0x4 build/default/production/_ext/1171490990/tasks.o
                0x800000d0                xAPP_FREERTOS_Tasks
 .scommon       0x800000d4        0x4 build/default/production/_ext/1360937237/app_freertos.o
                0x800000d4                USBDeviceTask_EventQueue_Handle
                0x800000d8                _sbss_end = .
                0x800000d8                . = ALIGN (0x4)

.bss            0x800000d8      0x178
 *(.dynbss)
 *(COMMON)
 COMMON         0x800000d8      0x134 build/default/production/_ext/2071311437/drv_usbhs.o
                0x800000d8                gDrvUSBObj
 COMMON         0x8000020c       0x14 build/default/production/_ext/1171490990/initialization.o
                0x8000020c                sysObj
 COMMON         0x80000220       0x30 build/default/production/_ext/1360937237/app_freertos.o
                0x80000220                appData
                0x80000250                . = ALIGN ((. != 0x0)?0x4:0x1)
                0x80000250                . = ALIGN (0x4)
                0x80000250                _end = .
                0x80000250                _bss_end = .
                0x00080000                _bmxdudba_address = 0x80000
                0x00080000                _bmxdupba_address = 0x80000

/DISCARD/
 *(.pdr)
 *(.rel.dyn)
 *(.note.GNU-stack)
 *(.note.GNU-stack)
 *(.gnu_debuglink)
 *(.gnu.lto_*)
 *(.discard)

.gptab.sdata
 *(.gptab.data)
 *(.gptab.sdata)

.gptab.sbss
 *(.gptab.bss)
 *(.gptab.sbss)

.mdebug.abi32   0x00000000        0x0
 *(.mdebug.abi32)
 .mdebug.abi32  0x00000000        0x0 build/default/production/_ext/1100529066/drv_sdspi_driver_interface.o
 .mdebug.abi32  0x00000000        0x0 build/default/production/_ext/1100529066/drv_sdspi.o
 .mdebug.abi32  0x00000000        0x0 build/default/production/_ext/1100529066/drv_sdspi_file_system.o
 .mdebug.abi32  0x00000000        0x0 build/default/production/_ext/2070931557/drv_spi.o
 .mdebug.abi32  0x00000000        0x0 build/default/production/_ext/2071311437/drv_usbhs_device.o
 .mdebug.abi32  0x00000000        0x0 build/default/production/_ext/2071311437/drv_usbhs.o
 .mdebug.abi32  0x00000000        0x0 build/default/production/_ext/1529399856/osal_freertos.o
 .mdebug.abi32  0x00000000        0x0 build/default/production/_ext/1984157808/plib_cache.o
 .mdebug.abi32  0x00000000        0x0 build/default/production/_ext/60165520/plib_clk.o
 .mdebug.abi32  0x00000000        0x0 build/default/production/_ext/1249264884/plib_coretimer.o
 .mdebug.abi32  0x00000000        0x0 build/default/production/_ext/1865200349/plib_evic.o
 .mdebug.abi32  0x00000000        0x0 build/default/production/_ext/1865254177/plib_gpio.o
 .mdebug.abi32  0x00000000        0x0 build/default/production/_ext/298189674/plib_spi4_master.o
 .mdebug.abi32  0x00000000        0x0 build/default/production/_ext/163028504/xc32_monitor.o
 .mdebug.abi32  0x00000000        0x0 build/default/production/_ext/1014039709/sys_cache.o
 .mdebug.abi32  0x00000000        0x0 build/default/production/_ext/14461671/sys_dma.o
 .mdebug.abi32  0x00000000        0x0 build/default/production/_ext/411819097/ffunicode.o
 .mdebug.abi32  0x00000000        0x0 build/default/production/_ext/411819097/ff.o
 .mdebug.abi32  0x00000000        0x0 build/default/production/_ext/565198302/diskio.o
 .mdebug.abi32  0x00000000        0x0 build/default/production/_ext/1269487135/sys_fs_fat_interface.o
 .mdebug.abi32  0x00000000        0x0 build/default/production/_ext/1269487135/sys_fs_media_manager.o
 .mdebug.abi32  0x00000000        0x0 build/default/production/_ext/1269487135/sys_fs.o
 .mdebug.abi32  0x00000000        0x0 build/default/production/_ext/1881668453/sys_int.o
 .mdebug.abi32  0x00000000        0x0 build/default/production/_ext/101884895/sys_time.o
 .mdebug.abi32  0x00000000        0x0 build/default/production/_ext/308758920/usb_device.o
 .mdebug.abi32  0x00000000        0x0 build/default/production/_ext/308758920/usb_device_cdc_acm.o
 .mdebug.abi32  0x00000000        0x0 build/default/production/_ext/308758920/usb_device_cdc.o
 .mdebug.abi32  0x00000000        0x0 build/default/production/_ext/1171490990/freertos_hooks.o
 .mdebug.abi32  0x00000000        0x0 build/default/production/_ext/1171490990/initialization.o
 .mdebug.abi32  0x00000000        0x0 build/default/production/_ext/1171490990/interrupts.o
 .mdebug.abi32  0x00000000        0x0 build/default/production/_ext/1171490990/exceptions.o
 .mdebug.abi32  0x00000000        0x0 build/default/production/_ext/1171490990/tasks.o
 .mdebug.abi32  0x00000000        0x0 build/default/production/_ext/1171490990/usb_device_init_data.o
 .mdebug.abi32  0x00000000        0x0 build/default/production/_ext/1665200909/heap_4.o
 .mdebug.abi32  0x00000000        0x0 build/default/production/_ext/951553246/port.o
 .mdebug.abi32  0x00000000        0x0 build/default/production/_ext/404212886/FreeRTOS_tasks.o
 .mdebug.abi32  0x00000000        0x0 build/default/production/_ext/404212886/list.o
 .mdebug.abi32  0x00000000        0x0 build/default/production/_ext/404212886/queue.o
 .mdebug.abi32  0x00000000        0x0 build/default/production/_ext/404212886/croutine.o
 .mdebug.abi32  0x00000000        0x0 build/default/production/_ext/404212886/event_groups.o
 .mdebug.abi32  0x00000000        0x0 build/default/production/_ext/404212886/stream_buffer.o
 .mdebug.abi32  0x00000000        0x0 build/default/production/_ext/404212886/timers.o
 .mdebug.abi32  0x00000000        0x0 build/default/production/_ext/1360937237/app_freertos.o
 .mdebug.abi32  0x00000000        0x0 build/default/production/_ext/1360937237/main.o
 .mdebug.abi32  0x00000000        0x0 build/default/production/_ext/1865161661/plib_dmac.o
 .mdebug.abi32  0x00000000        0x0 c:/program files/microchip/xc32/v2.50/bin/bin/../../lib/gcc/pic32mx/4.8.3/fpu64\libgcc.a(_udivdi3.o)
 .mdebug.abi32  0x00000000        0x0 c:/program files/microchip/xc32/v2.50/bin/bin/../../lib/gcc/pic32mx/4.8.3/../../../../pic32mx/lib/fpu64\libpic32.a(default-on-reset.o)
 .mdebug.abi32  0x00000000        0x0 c:/program files/microchip/xc32/v2.50/bin/bin/../../lib/gcc/pic32mx/4.8.3/../../../../pic32mx/lib/fpu64\libpic32.a(default-on-bootstrap.o)
 .mdebug.abi32  0x00000000        0x0 c:/program files/microchip/xc32/v2.50/bin/bin/../../lib/gcc/pic32mx/4.8.3/../../../../pic32mx/lib/fpu64\libpic32.a(defaultinterrupt.o)
 .mdebug.abi32  0x00000000        0x0 c:/program files/microchip/xc32/v2.50/bin/bin/../../lib/gcc/pic32mx/4.8.3/../../../../pic32mx/lib/fpu64\liblega-c.a(strncmp.o)
 .mdebug.abi32  0x00000000        0x0 c:/program files/microchip/xc32/v2.50/bin/bin/../../lib/gcc/pic32mx/4.8.3/../../../../pic32mx/lib/fpu64\liblega-c.a(strchr.o)
 .mdebug.abi32  0x00000000        0x0 c:/program files/microchip/xc32/v2.50/bin/bin/../../lib/gcc/pic32mx/4.8.3/../../../../pic32mx/lib/fpu64\liblega-c.a(memmove.o)

.mdebug.abiN32
 *(.mdebug.abiN32)

.mdebug.abi64
 *(.mdebug.abi64)

.mdebug.abiO64
 *(.mdebug.abiO64)

.mdebug.eabi32
 *(.mdebug.eabi32)

.mdebug.eabi64
 *(.mdebug.eabi64)

.gcc_compiled_long32
 *(.gcc_compiled_long32)

.gcc_compiled_long64
 *(.gcc_compiled_long64)

.stab
 *(.stab)

.stabstr
 *(.stabstr)

.stab.excl
 *(.stab.excl)

.stab.exclstr
 *(.stab.exclstr)

.stab.index
 *(.stab.index)

.stab.indexstr
 *(.stab.indexstr)

.comment        0x00000000      0x18d
 *(.comment)
 .comment       0x00000000       0x3c build/default/production/_ext/1100529066/drv_sdspi_driver_interface.o
                                 0x3d (size before relaxing)
 .comment       0x00000000       0x3d build/default/production/_ext/1100529066/drv_sdspi.o
 .comment       0x00000000       0x3d build/default/production/_ext/1100529066/drv_sdspi_file_system.o
 .comment       0x00000000       0x3d build/default/production/_ext/2070931557/drv_spi.o
 .comment       0x00000000       0x3d build/default/production/_ext/2071311437/drv_usbhs_device.o
 .comment       0x00000000       0x3d build/default/production/_ext/2071311437/drv_usbhs.o
 .comment       0x00000000       0x3d build/default/production/_ext/1529399856/osal_freertos.o
 .comment       0x00000000       0x3d build/default/production/_ext/1984157808/plib_cache.o
 .comment       0x00000000       0x3d build/default/production/_ext/60165520/plib_clk.o
 .comment       0x00000000       0x3d build/default/production/_ext/1249264884/plib_coretimer.o
 .comment       0x00000000       0x3d build/default/production/_ext/1865200349/plib_evic.o
 .comment       0x00000000       0x3d build/default/production/_ext/1865254177/plib_gpio.o
 .comment       0x00000000       0x3d build/default/production/_ext/298189674/plib_spi4_master.o
 .comment       0x00000000       0x3d build/default/production/_ext/163028504/xc32_monitor.o
 .comment       0x00000000       0x3d build/default/production/_ext/1014039709/sys_cache.o
 .comment       0x00000000       0x3d build/default/production/_ext/14461671/sys_dma.o
 .comment       0x00000000       0x3d build/default/production/_ext/411819097/ffunicode.o
 .comment       0x00000000       0x3d build/default/production/_ext/411819097/ff.o
 .comment       0x00000000       0x3d build/default/production/_ext/565198302/diskio.o
 .comment       0x00000000       0x3d build/default/production/_ext/1269487135/sys_fs_fat_interface.o
 .comment       0x00000000       0x3d build/default/production/_ext/1269487135/sys_fs_media_manager.o
 .comment       0x00000000       0x3d build/default/production/_ext/1269487135/sys_fs.o
 .comment       0x00000000       0x3d build/default/production/_ext/1881668453/sys_int.o
 .comment       0x00000000       0x3d build/default/production/_ext/101884895/sys_time.o
 .comment       0x00000000       0x3d build/default/production/_ext/308758920/usb_device.o
 .comment       0x00000000       0x3d build/default/production/_ext/308758920/usb_device_cdc_acm.o
 .comment       0x00000000       0x3d build/default/production/_ext/308758920/usb_device_cdc.o
 .comment       0x00000000       0x3d build/default/production/_ext/1171490990/freertos_hooks.o
 .comment       0x00000000       0x3d build/default/production/_ext/1171490990/initialization.o
 .comment       0x00000000       0x3d build/default/production/_ext/1171490990/interrupts.o
 .comment       0x00000000       0x3d build/default/production/_ext/1171490990/exceptions.o
 .comment       0x00000000       0x3d build/default/production/_ext/1171490990/tasks.o
 .comment       0x00000000       0x3d build/default/production/_ext/1171490990/usb_device_init_data.o
 .comment       0x00000000       0x3d build/default/production/_ext/1665200909/heap_4.o
 .comment       0x00000000       0x3d build/default/production/_ext/951553246/port.o
 .comment       0x00000000       0x3d build/default/production/_ext/404212886/FreeRTOS_tasks.o
 .comment       0x00000000       0x3d build/default/production/_ext/404212886/list.o
 .comment       0x00000000       0x3d build/default/production/_ext/404212886/queue.o
 .comment       0x00000000       0x3d build/default/production/_ext/404212886/croutine.o
 .comment       0x00000000       0x3d build/default/production/_ext/404212886/event_groups.o
 .comment       0x00000000       0x3d build/default/production/_ext/404212886/stream_buffer.o
 .comment       0x00000000       0x3d build/default/production/_ext/404212886/timers.o
 .comment       0x00000000       0x3d build/default/production/_ext/1360937237/app_freertos.o
 .comment       0x00000000       0x3d build/default/production/_ext/1360937237/main.o
 .comment       0x00000000       0x3d build/default/production/_ext/1865161661/plib_dmac.o
 .comment       0x00000000       0x3d c:/program files/microchip/xc32/v2.50/bin/bin/../../lib/gcc/pic32mx/4.8.3/fpu64\libgcc.a(_udivdi3.o)
 .comment       0x0000003c       0x18 c:/program files/microchip/xc32/v2.50/bin/bin/../../lib/gcc/pic32mx/4.8.3/../../../../pic32mx/lib/fpu64\libpic32.a(memcmp.o)
                                 0x19 (size before relaxing)
 .comment       0x00000054       0x18 c:/program files/microchip/xc32/v2.50/bin/bin/../../lib/gcc/pic32mx/4.8.3/../../../../pic32mx/lib/fpu64\libpic32.a(memset.o)
                                 0x19 (size before relaxing)
 .comment       0x0000006c       0x19 c:/program files/microchip/xc32/v2.50/bin/bin/../../lib/gcc/pic32mx/4.8.3/../../../../pic32mx/lib/fpu64\libpic32.a(strcmp.o)
                                 0x1a (size before relaxing)
 .comment       0x00000085       0x19 c:/program files/microchip/xc32/v2.50/bin/bin/../../lib/gcc/pic32mx/4.8.3/../../../../pic32mx/lib/fpu64\libpic32.a(strlen.o)
                                 0x1a (size before relaxing)
 .comment       0x00000000       0x3d c:/program files/microchip/xc32/v2.50/bin/bin/../../lib/gcc/pic32mx/4.8.3/../../../../pic32mx/lib/fpu64\libpic32.a(default-on-reset.o)
 .comment       0x00000000       0x3d c:/program files/microchip/xc32/v2.50/bin/bin/../../lib/gcc/pic32mx/4.8.3/../../../../pic32mx/lib/fpu64\libpic32.a(default-on-bootstrap.o)
 .comment       0x00000000       0x3d c:/program files/microchip/xc32/v2.50/bin/bin/../../lib/gcc/pic32mx/4.8.3/../../../../pic32mx/lib/fpu64\libpic32.a(defaultinterrupt.o)
 .comment       0x0000009e       0x50 c:/program files/microchip/xc32/v2.50/bin/bin/../../lib/gcc/pic32mx/4.8.3/../../../../pic32mx/lib/fpu64\liblega-c.a(strncmp.o)
                                 0x8d (size before relaxing)
 .comment       0x000000ee       0x4f c:/program files/microchip/xc32/v2.50/bin/bin/../../lib/gcc/pic32mx/4.8.3/../../../../pic32mx/lib/fpu64\liblega-c.a(strchr.o)
                                 0x8c (size before relaxing)
 .comment       0x0000013d       0x50 c:/program files/microchip/xc32/v2.50/bin/bin/../../lib/gcc/pic32mx/4.8.3/../../../../pic32mx/lib/fpu64\liblega-c.a(memmove.o)
                                 0x8d (size before relaxing)

.debug
 *.elf(.debug)
 *(.debug)

.line
 *.elf(.line)
 *(.line)

.debug_srcinfo
 *.elf(.debug_srcinfo)
 *(.debug_srcinfo)

.debug_sfnames
 *.elf(.debug_sfnames)
 *(.debug_sfnames)

.debug_aranges  0x00000000     0x1dd0
 *.elf(.debug_aranges)
 *(.debug_aranges)
 .debug_aranges
                0x00000000       0x80 build/default/production/_ext/1100529066/drv_sdspi_driver_interface.o
 .debug_aranges
                0x00000080      0x168 build/default/production/_ext/1100529066/drv_sdspi.o
 .debug_aranges
                0x000001e8       0x20 build/default/production/_ext/1100529066/drv_sdspi_file_system.o
 .debug_aranges
                0x00000208       0xc0 build/default/production/_ext/2070931557/drv_spi.o
 .debug_aranges
                0x000002c8      0x3c0 build/default/production/_ext/2071311437/drv_usbhs_device.o
 .debug_aranges
                0x00000688       0xa0 build/default/production/_ext/2071311437/drv_usbhs.o
 .debug_aranges
                0x00000728       0x90 build/default/production/_ext/1529399856/osal_freertos.o
 .debug_aranges
                0x000007b8       0x20 build/default/production/_ext/1984157808/plib_cache_pic32mz.o
 .debug_aranges
                0x000007d8       0xc0 build/default/production/_ext/1984157808/plib_cache.o
 .debug_aranges
                0x00000898       0x20 build/default/production/_ext/60165520/plib_clk.o
 .debug_aranges
                0x000008b8       0x68 build/default/production/_ext/1249264884/plib_coretimer.o
 .debug_aranges
                0x00000920       0x68 build/default/production/_ext/1865200349/plib_evic.o
 .debug_aranges
                0x00000988       0x60 build/default/production/_ext/1865254177/plib_gpio.o
 .debug_aranges
                0x000009e8       0x68 build/default/production/_ext/298189674/plib_spi4_master.o
 .debug_aranges
                0x00000a50       0x28 build/default/production/_ext/163028504/xc32_monitor.o
 .debug_aranges
                0x00000a78       0x80 build/default/production/_ext/1014039709/sys_cache.o
 .debug_aranges
                0x00000af8       0x30 build/default/production/_ext/14461671/sys_dma.o
 .debug_aranges
                0x00000b28       0x30 build/default/production/_ext/411819097/ffunicode.o
 .debug_aranges
                0x00000b58      0x280 build/default/production/_ext/411819097/ff.o
 .debug_aranges
                0x00000dd8       0x60 build/default/production/_ext/565198302/diskio.o
 .debug_aranges
                0x00000e38      0x130 build/default/production/_ext/1269487135/sys_fs_fat_interface.o
 .debug_aranges
                0x00000f68       0xb8 build/default/production/_ext/1269487135/sys_fs_media_manager.o
 .debug_aranges
                0x00001020      0x178 build/default/production/_ext/1269487135/sys_fs.o
 .debug_aranges
                0x00001198       0x40 build/default/production/_ext/1881668453/sys_int.o
 .debug_aranges
                0x000011d8      0x158 build/default/production/_ext/101884895/sys_time.o
 .debug_aranges
                0x00001330      0x1a0 build/default/production/_ext/308758920/usb_device.o
 .debug_aranges
                0x000014d0       0x20 build/default/production/_ext/308758920/usb_device_cdc_acm.o
 .debug_aranges
                0x000014f0       0x88 build/default/production/_ext/308758920/usb_device_cdc.o
 .debug_aranges
                0x00001578       0x40 build/default/production/_ext/1171490990/freertos_hooks.o
 .debug_aranges
                0x000015b8       0x20 build/default/production/_ext/1171490990/initialization.o
 .debug_aranges
                0x000015d8       0x50 build/default/production/_ext/1171490990/interrupts.o
 .debug_aranges
                0x00001628       0x50 build/default/production/_ext/1171490990/interrupts_a.o
 .debug_aranges
                0x00001678       0x38 build/default/production/_ext/1171490990/exceptions.o
 .debug_aranges
                0x000016b0       0x48 build/default/production/_ext/1171490990/tasks.o
 .debug_aranges
                0x000016f8       0x18 build/default/production/_ext/1171490990/usb_device_init_data.o
 .debug_aranges
                0x00001710       0x60 build/default/production/_ext/1665200909/heap_4.o
 .debug_aranges
                0x00001770       0x60 build/default/production/_ext/951553246/port.o
 .debug_aranges
                0x000017d0       0x30 build/default/production/_ext/951553246/port_asm.o
 .debug_aranges
                0x00001800      0x1d0 build/default/production/_ext/404212886/FreeRTOS_tasks.o
 .debug_aranges
                0x000019d0       0x40 build/default/production/_ext/404212886/list.o
 .debug_aranges
                0x00001a10       0xe8 build/default/production/_ext/404212886/queue.o
 .debug_aranges
                0x00001af8       0x18 build/default/production/_ext/404212886/croutine.o
 .debug_aranges
                0x00001b10       0x68 build/default/production/_ext/404212886/event_groups.o
 .debug_aranges
                0x00001b78       0xc0 build/default/production/_ext/404212886/stream_buffer.o
 .debug_aranges
                0x00001c38       0x18 build/default/production/_ext/404212886/timers.o
 .debug_aranges
                0x00001c50       0x48 build/default/production/_ext/1360937237/app_freertos.o
 .debug_aranges
                0x00001c98       0x20 build/default/production/_ext/1360937237/main.o
 .debug_aranges
                0x00001cb8       0x98 build/default/production/_ext/1865161661/plib_dmac.o
 .debug_aranges
                0x00001d50       0x20 c:/program files/microchip/xc32/v2.50/bin/bin/../../lib/gcc/pic32mx/4.8.3/fpu64\libgcc.a(_udivdi3.o)
 .debug_aranges
                0x00001d70       0x20 c:/program files/microchip/xc32/v2.50/bin/bin/../../lib/gcc/pic32mx/4.8.3/../../../../pic32mx/lib/fpu64\libpic32.a(default-on-reset.o)
 .debug_aranges
                0x00001d90       0x20 c:/program files/microchip/xc32/v2.50/bin/bin/../../lib/gcc/pic32mx/4.8.3/../../../../pic32mx/lib/fpu64\libpic32.a(default-on-bootstrap.o)
 .debug_aranges
                0x00001db0       0x20 c:/program files/microchip/xc32/v2.50/bin/bin/../../lib/gcc/pic32mx/4.8.3/../../../../pic32mx/lib/fpu64\libpic32.a(defaultinterrupt.o)

.debug_pubnames
 *.elf(.debug_pubnames)
 *(.debug_pubnames)

.debug_info     0x00000000    0x40b67
 *.elf(.debug_info .gnu.linkonce.wi.*)
 *(.debug_info .gnu.linkonce.wi.*)
 .debug_info    0x00000000     0x21c7 build/default/production/_ext/1100529066/drv_sdspi_driver_interface.o
 .debug_info    0x000021c7     0x363f build/default/production/_ext/1100529066/drv_sdspi.o
 .debug_info    0x00005806      0xa4c build/default/production/_ext/1100529066/drv_sdspi_file_system.o
 .debug_info    0x00006252     0x249f build/default/production/_ext/2070931557/drv_spi.o
 .debug_info    0x000086f1     0x7dec build/default/production/_ext/2071311437/drv_usbhs_device.o
 .debug_info    0x000104dd     0x4a30 build/default/production/_ext/2071311437/drv_usbhs.o
 .debug_info    0x00014f0d      0x7cc build/default/production/_ext/1529399856/osal_freertos.o
 .debug_info    0x000156d9       0xb2 build/default/production/_ext/1984157808/plib_cache_pic32mz.o
 .debug_info    0x0001578b      0x661 build/default/production/_ext/1984157808/plib_cache.o
 .debug_info    0x00015dec      0x399 build/default/production/_ext/60165520/plib_clk.o
 .debug_info    0x00016185      0x7b3 build/default/production/_ext/1249264884/plib_coretimer.o
 .debug_info    0x00016938      0x4d1 build/default/production/_ext/1865200349/plib_evic.o
 .debug_info    0x00016e09      0x614 build/default/production/_ext/1865254177/plib_gpio.o
 .debug_info    0x0001741d      0x945 build/default/production/_ext/298189674/plib_spi4_master.o
 .debug_info    0x00017d62      0x19f build/default/production/_ext/163028504/xc32_monitor.o
 .debug_info    0x00017f01      0x455 build/default/production/_ext/1014039709/sys_cache.o
 .debug_info    0x00018356      0x620 build/default/production/_ext/14461671/sys_dma.o
 .debug_info    0x00018976      0x372 build/default/production/_ext/411819097/ffunicode.o
 .debug_info    0x00018ce8     0x313b build/default/production/_ext/411819097/ff.o
 .debug_info    0x0001be23      0xc56 build/default/production/_ext/565198302/diskio.o
 .debug_info    0x0001ca79     0x1a27 build/default/production/_ext/1269487135/sys_fs_fat_interface.o
 .debug_info    0x0001e4a0     0x1d07 build/default/production/_ext/1269487135/sys_fs_media_manager.o
 .debug_info    0x000201a7     0x2cd9 build/default/production/_ext/1269487135/sys_fs.o
 .debug_info    0x00022e80      0x2da build/default/production/_ext/1881668453/sys_int.o
 .debug_info    0x0002315a     0x19b7 build/default/production/_ext/101884895/sys_time.o
 .debug_info    0x00024b11     0x4cc0 build/default/production/_ext/308758920/usb_device.o
 .debug_info    0x000297d1     0x1267 build/default/production/_ext/308758920/usb_device_cdc_acm.o
 .debug_info    0x0002aa38     0x32c3 build/default/production/_ext/308758920/usb_device_cdc.o
 .debug_info    0x0002dcfb      0x320 build/default/production/_ext/1171490990/freertos_hooks.o
 .debug_info    0x0002e01b     0x3d40 build/default/production/_ext/1171490990/initialization.o
 .debug_info    0x00031d5b      0x250 build/default/production/_ext/1171490990/interrupts.o
 .debug_info    0x00031fab       0x97 build/default/production/_ext/1171490990/interrupts_a.o
 .debug_info    0x00032042      0xa3c build/default/production/_ext/1171490990/exceptions.o
 .debug_info    0x00032a7e      0xbaf build/default/production/_ext/1171490990/tasks.o
 .debug_info    0x0003362d     0x2da2 build/default/production/_ext/1171490990/usb_device_init_data.o
 .debug_info    0x000363cf      0x751 build/default/production/_ext/1665200909/heap_4.o
 .debug_info    0x00036b20      0xe5a build/default/production/_ext/951553246/port.o
 .debug_info    0x0003797a       0xbc build/default/production/_ext/951553246/port_asm.o
 .debug_info    0x00037a36     0x248c build/default/production/_ext/404212886/FreeRTOS_tasks.o
 .debug_info    0x00039ec2      0x480 build/default/production/_ext/404212886/list.o
 .debug_info    0x0003a342     0x13fa build/default/production/_ext/404212886/queue.o
 .debug_info    0x0003b73c      0x172 build/default/production/_ext/404212886/croutine.o
 .debug_info    0x0003b8ae      0x96b build/default/production/_ext/404212886/event_groups.o
 .debug_info    0x0003c219     0x1051 build/default/production/_ext/404212886/stream_buffer.o
 .debug_info    0x0003d26a      0x170 build/default/production/_ext/404212886/timers.o
 .debug_info    0x0003d3da     0x1a96 build/default/production/_ext/1360937237/app_freertos.o
 .debug_info    0x0003ee70      0x17b build/default/production/_ext/1360937237/main.o
 .debug_info    0x0003efeb     0x11a2 build/default/production/_ext/1865161661/plib_dmac.o
 .debug_info    0x0004018d      0x751 c:/program files/microchip/xc32/v2.50/bin/bin/../../lib/gcc/pic32mx/4.8.3/fpu64\libgcc.a(_udivdi3.o)
 .debug_info    0x000408de       0xcd c:/program files/microchip/xc32/v2.50/bin/bin/../../lib/gcc/pic32mx/4.8.3/../../../../pic32mx/lib/fpu64\libpic32.a(default-on-reset.o)
 .debug_info    0x000409ab       0xd5 c:/program files/microchip/xc32/v2.50/bin/bin/../../lib/gcc/pic32mx/4.8.3/../../../../pic32mx/lib/fpu64\libpic32.a(default-on-bootstrap.o)
 .debug_info    0x00040a80       0xe7 c:/program files/microchip/xc32/v2.50/bin/bin/../../lib/gcc/pic32mx/4.8.3/../../../../pic32mx/lib/fpu64\libpic32.a(defaultinterrupt.o)

.debug_abbrev   0x00000000     0x4879
 *.elf(.debug_abbrev)
 *(.debug_abbrev)
 .debug_abbrev  0x00000000      0x1a2 build/default/production/_ext/1100529066/drv_sdspi_driver_interface.o
 .debug_abbrev  0x000001a2      0x2f2 build/default/production/_ext/1100529066/drv_sdspi.o
 .debug_abbrev  0x00000494      0x105 build/default/production/_ext/1100529066/drv_sdspi_file_system.o
 .debug_abbrev  0x00000599      0x279 build/default/production/_ext/2070931557/drv_spi.o
 .debug_abbrev  0x00000812      0x3e4 build/default/production/_ext/2071311437/drv_usbhs_device.o
 .debug_abbrev  0x00000bf6      0x3c9 build/default/production/_ext/2071311437/drv_usbhs.o
 .debug_abbrev  0x00000fbf      0x146 build/default/production/_ext/1529399856/osal_freertos.o
 .debug_abbrev  0x00001105       0x14 build/default/production/_ext/1984157808/plib_cache_pic32mz.o
 .debug_abbrev  0x00001119      0x113 build/default/production/_ext/1984157808/plib_cache.o
 .debug_abbrev  0x0000122c       0xa8 build/default/production/_ext/60165520/plib_clk.o
 .debug_abbrev  0x000012d4      0x199 build/default/production/_ext/1249264884/plib_coretimer.o
 .debug_abbrev  0x0000146d       0xd7 build/default/production/_ext/1865200349/plib_evic.o
 .debug_abbrev  0x00001544      0x10d build/default/production/_ext/1865254177/plib_gpio.o
 .debug_abbrev  0x00001651      0x1c6 build/default/production/_ext/298189674/plib_spi4_master.o
 .debug_abbrev  0x00001817       0x7a build/default/production/_ext/163028504/xc32_monitor.o
 .debug_abbrev  0x00001891       0x8e build/default/production/_ext/1014039709/sys_cache.o
 .debug_abbrev  0x0000191f       0xf2 build/default/production/_ext/14461671/sys_dma.o
 .debug_abbrev  0x00001a11       0x8a build/default/production/_ext/411819097/ffunicode.o
 .debug_abbrev  0x00001a9b      0x1c4 build/default/production/_ext/411819097/ff.o
 .debug_abbrev  0x00001c5f      0x229 build/default/production/_ext/565198302/diskio.o
 .debug_abbrev  0x00001e88      0x1ce build/default/production/_ext/1269487135/sys_fs_fat_interface.o
 .debug_abbrev  0x00002056      0x2af build/default/production/_ext/1269487135/sys_fs_media_manager.o
 .debug_abbrev  0x00002305      0x28f build/default/production/_ext/1269487135/sys_fs.o
 .debug_abbrev  0x00002594       0xd9 build/default/production/_ext/1881668453/sys_int.o
 .debug_abbrev  0x0000266d      0x2cc build/default/production/_ext/101884895/sys_time.o
 .debug_abbrev  0x00002939      0x2ea build/default/production/_ext/308758920/usb_device.o
 .debug_abbrev  0x00002c23      0x166 build/default/production/_ext/308758920/usb_device_cdc_acm.o
 .debug_abbrev  0x00002d89      0x2bb build/default/production/_ext/308758920/usb_device_cdc.o
 .debug_abbrev  0x00003044       0xd0 build/default/production/_ext/1171490990/freertos_hooks.o
 .debug_abbrev  0x00003114      0x24f build/default/production/_ext/1171490990/initialization.o
 .debug_abbrev  0x00003363       0x39 build/default/production/_ext/1171490990/interrupts.o
 .debug_abbrev  0x0000339c       0x12 build/default/production/_ext/1171490990/interrupts_a.o
 .debug_abbrev  0x000033ae       0x78 build/default/production/_ext/1171490990/exceptions.o
 .debug_abbrev  0x00003426       0xf7 build/default/production/_ext/1171490990/tasks.o
 .debug_abbrev  0x0000351d      0x1be build/default/production/_ext/1171490990/usb_device_init_data.o
 .debug_abbrev  0x000036db      0x16b build/default/production/_ext/1665200909/heap_4.o
 .debug_abbrev  0x00003846      0x240 build/default/production/_ext/951553246/port.o
 .debug_abbrev  0x00003a86       0x12 build/default/production/_ext/951553246/port_asm.o
 .debug_abbrev  0x00003a98      0x24e build/default/production/_ext/404212886/FreeRTOS_tasks.o
 .debug_abbrev  0x00003ce6       0xe9 build/default/production/_ext/404212886/list.o
 .debug_abbrev  0x00003dcf      0x19a build/default/production/_ext/404212886/queue.o
 .debug_abbrev  0x00003f69       0x1b build/default/production/_ext/404212886/croutine.o
 .debug_abbrev  0x00003f84      0x160 build/default/production/_ext/404212886/event_groups.o
 .debug_abbrev  0x000040e4      0x174 build/default/production/_ext/404212886/stream_buffer.o
 .debug_abbrev  0x00004258       0x1b build/default/production/_ext/404212886/timers.o
 .debug_abbrev  0x00004273      0x1d8 build/default/production/_ext/1360937237/app_freertos.o
 .debug_abbrev  0x0000444b       0x3b build/default/production/_ext/1360937237/main.o
 .debug_abbrev  0x00004486      0x243 build/default/production/_ext/1865161661/plib_dmac.o
 .debug_abbrev  0x000046c9      0x138 c:/program files/microchip/xc32/v2.50/bin/bin/../../lib/gcc/pic32mx/4.8.3/fpu64\libgcc.a(_udivdi3.o)
 .debug_abbrev  0x00004801       0x28 c:/program files/microchip/xc32/v2.50/bin/bin/../../lib/gcc/pic32mx/4.8.3/../../../../pic32mx/lib/fpu64\libpic32.a(default-on-reset.o)
 .debug_abbrev  0x00004829       0x28 c:/program files/microchip/xc32/v2.50/bin/bin/../../lib/gcc/pic32mx/4.8.3/../../../../pic32mx/lib/fpu64\libpic32.a(default-on-bootstrap.o)
 .debug_abbrev  0x00004851       0x28 c:/program files/microchip/xc32/v2.50/bin/bin/../../lib/gcc/pic32mx/4.8.3/../../../../pic32mx/lib/fpu64\libpic32.a(defaultinterrupt.o)

.debug_line     0x00000000     0xf5fe
 *.elf(.debug_line)
 *(.debug_line)
 .debug_line    0x00000000      0x656 build/default/production/_ext/1100529066/drv_sdspi_driver_interface.o
 .debug_line    0x00000656      0xba7 build/default/production/_ext/1100529066/drv_sdspi.o
 .debug_line    0x000011fd      0x278 build/default/production/_ext/1100529066/drv_sdspi_file_system.o
 .debug_line    0x00001475      0x8cc build/default/production/_ext/2070931557/drv_spi.o
 .debug_line    0x00001d41     0x1817 build/default/production/_ext/2071311437/drv_usbhs_device.o
 .debug_line    0x00003558      0x9f3 build/default/production/_ext/2071311437/drv_usbhs.o
 .debug_line    0x00003f4b      0x3cb build/default/production/_ext/1529399856/osal_freertos.o
 .debug_line    0x00004316      0x208 build/default/production/_ext/1984157808/plib_cache_pic32mz.o
 .debug_line    0x0000451e      0x2d0 build/default/production/_ext/1984157808/plib_cache.o
 .debug_line    0x000047ee      0x175 build/default/production/_ext/60165520/plib_clk.o
 .debug_line    0x00004963      0x246 build/default/production/_ext/1249264884/plib_coretimer.o
 .debug_line    0x00004ba9      0x240 build/default/production/_ext/1865200349/plib_evic.o
 .debug_line    0x00004de9      0x223 build/default/production/_ext/1865254177/plib_gpio.o
 .debug_line    0x0000500c      0x3a4 build/default/production/_ext/298189674/plib_spi4_master.o
 .debug_line    0x000053b0       0xf9 build/default/production/_ext/163028504/xc32_monitor.o
 .debug_line    0x000054a9      0x228 build/default/production/_ext/1014039709/sys_cache.o
 .debug_line    0x000056d1      0x205 build/default/production/_ext/14461671/sys_dma.o
 .debug_line    0x000058d6      0x125 build/default/production/_ext/411819097/ffunicode.o
 .debug_line    0x000059fb     0x1370 build/default/production/_ext/411819097/ff.o
 .debug_line    0x00006d6b      0x3cf build/default/production/_ext/565198302/diskio.o
 .debug_line    0x0000713a      0x5dd build/default/production/_ext/1269487135/sys_fs_fat_interface.o
 .debug_line    0x00007717      0x6f3 build/default/production/_ext/1269487135/sys_fs_media_manager.o
 .debug_line    0x00007e0a      0xc3d build/default/production/_ext/1269487135/sys_fs.o
 .debug_line    0x00008a47      0x1bb build/default/production/_ext/1881668453/sys_int.o
 .debug_line    0x00008c02      0x867 build/default/production/_ext/101884895/sys_time.o
 .debug_line    0x00009469      0xc22 build/default/production/_ext/308758920/usb_device.o
 .debug_line    0x0000a08b      0x247 build/default/production/_ext/308758920/usb_device_cdc_acm.o
 .debug_line    0x0000a2d2      0x729 build/default/production/_ext/308758920/usb_device_cdc.o
 .debug_line    0x0000a9fb      0x1bd build/default/production/_ext/1171490990/freertos_hooks.o
 .debug_line    0x0000abb8      0xa3d build/default/production/_ext/1171490990/initialization.o
 .debug_line    0x0000b5f5      0x102 build/default/production/_ext/1171490990/interrupts.o
 .debug_line    0x0000b6f7      0x175 build/default/production/_ext/1171490990/interrupts_a.o
 .debug_line    0x0000b86c      0x26e build/default/production/_ext/1171490990/exceptions.o
 .debug_line    0x0000bada      0x3e9 build/default/production/_ext/1171490990/tasks.o
 .debug_line    0x0000bec3      0x4a9 build/default/production/_ext/1171490990/usb_device_init_data.o
 .debug_line    0x0000c36c      0x397 build/default/production/_ext/1665200909/heap_4.o
 .debug_line    0x0000c703      0x2d9 build/default/production/_ext/951553246/port.o
 .debug_line    0x0000c9dc      0x1c4 build/default/production/_ext/951553246/port_asm.o
 .debug_line    0x0000cba0      0xa5a build/default/production/_ext/404212886/FreeRTOS_tasks.o
 .debug_line    0x0000d5fa      0x274 build/default/production/_ext/404212886/list.o
 .debug_line    0x0000d86e      0x6bf build/default/production/_ext/404212886/queue.o
 .debug_line    0x0000df2d       0x1d build/default/production/_ext/404212886/croutine.o
 .debug_line    0x0000df4a      0x38d build/default/production/_ext/404212886/event_groups.o
 .debug_line    0x0000e2d7      0x56c build/default/production/_ext/404212886/stream_buffer.o
 .debug_line    0x0000e843       0x1d build/default/production/_ext/404212886/timers.o
 .debug_line    0x0000e860      0x61f build/default/production/_ext/1360937237/app_freertos.o
 .debug_line    0x0000ee7f       0x81 build/default/production/_ext/1360937237/main.o
 .debug_line    0x0000ef00      0x438 build/default/production/_ext/1865161661/plib_dmac.o
 .debug_line    0x0000f338       0xf7 c:/program files/microchip/xc32/v2.50/bin/bin/../../lib/gcc/pic32mx/4.8.3/fpu64\libgcc.a(_udivdi3.o)
 .debug_line    0x0000f42f       0x93 c:/program files/microchip/xc32/v2.50/bin/bin/../../lib/gcc/pic32mx/4.8.3/../../../../pic32mx/lib/fpu64\libpic32.a(default-on-reset.o)
 .debug_line    0x0000f4c2       0x97 c:/program files/microchip/xc32/v2.50/bin/bin/../../lib/gcc/pic32mx/4.8.3/../../../../pic32mx/lib/fpu64\libpic32.a(default-on-bootstrap.o)
 .debug_line    0x0000f559       0xa5 c:/program files/microchip/xc32/v2.50/bin/bin/../../lib/gcc/pic32mx/4.8.3/../../../../pic32mx/lib/fpu64\libpic32.a(defaultinterrupt.o)

.debug_frame    0x00000000     0x6e58
 *.elf(.debug_frame)
 *(.debug_frame)
 .debug_frame   0x00000000      0x1e0 build/default/production/_ext/1100529066/drv_sdspi_driver_interface.o
 .debug_frame   0x000001e0      0x5f4 build/default/production/_ext/1100529066/drv_sdspi.o
 .debug_frame   0x000007d4       0x34 build/default/production/_ext/1100529066/drv_sdspi_file_system.o
 .debug_frame   0x00000808      0x2f4 build/default/production/_ext/2070931557/drv_spi.o
 .debug_frame   0x00000afc      0xfc0 build/default/production/_ext/2071311437/drv_usbhs_device.o
 .debug_frame   0x00001abc      0x260 build/default/production/_ext/2071311437/drv_usbhs.o
 .debug_frame   0x00001d1c      0x228 build/default/production/_ext/1529399856/osal_freertos.o
 .debug_frame   0x00001f44      0x304 build/default/production/_ext/1984157808/plib_cache.o
 .debug_frame   0x00002248       0x30 build/default/production/_ext/60165520/plib_clk.o
 .debug_frame   0x00002278      0x170 build/default/production/_ext/1249264884/plib_coretimer.o
 .debug_frame   0x000023e8      0x15c build/default/production/_ext/1865200349/plib_evic.o
 .debug_frame   0x00002544      0x130 build/default/production/_ext/1865254177/plib_gpio.o
 .debug_frame   0x00002674      0x168 build/default/production/_ext/298189674/plib_spi4_master.o
 .debug_frame   0x000027dc       0x50 build/default/production/_ext/163028504/xc32_monitor.o
 .debug_frame   0x0000282c      0x1e4 build/default/production/_ext/1014039709/sys_cache.o
 .debug_frame   0x00002a10       0x74 build/default/production/_ext/14461671/sys_dma.o
 .debug_frame   0x00002a84       0x74 build/default/production/_ext/411819097/ffunicode.o
 .debug_frame   0x00002af8      0xac4 build/default/production/_ext/411819097/ff.o
 .debug_frame   0x000035bc      0x14c build/default/production/_ext/565198302/diskio.o
 .debug_frame   0x00003708      0x4ec build/default/production/_ext/1269487135/sys_fs_fat_interface.o
 .debug_frame   0x00003bf4      0x2c8 build/default/production/_ext/1269487135/sys_fs_media_manager.o
 .debug_frame   0x00003ebc      0x638 build/default/production/_ext/1269487135/sys_fs.o
 .debug_frame   0x000044f4       0xc4 build/default/production/_ext/1881668453/sys_int.o
 .debug_frame   0x000045b8      0x5bc build/default/production/_ext/101884895/sys_time.o
 .debug_frame   0x00004b74      0x6e0 build/default/production/_ext/308758920/usb_device.o
 .debug_frame   0x00005254       0x34 build/default/production/_ext/308758920/usb_device_cdc_acm.o
 .debug_frame   0x00005288      0x1fc build/default/production/_ext/308758920/usb_device_cdc.o
 .debug_frame   0x00005484       0xac build/default/production/_ext/1171490990/freertos_hooks.o
 .debug_frame   0x00005530       0x34 build/default/production/_ext/1171490990/initialization.o
 .debug_frame   0x00005564      0x10c build/default/production/_ext/1171490990/interrupts.o
 .debug_frame   0x00005670       0x80 build/default/production/_ext/1171490990/exceptions.o
 .debug_frame   0x000056f0       0xc0 build/default/production/_ext/1171490990/tasks.o
 .debug_frame   0x000057b0      0x144 build/default/production/_ext/1665200909/heap_4.o
 .debug_frame   0x000058f4      0x148 build/default/production/_ext/951553246/port.o
 .debug_frame   0x00005a3c      0x794 build/default/production/_ext/404212886/FreeRTOS_tasks.o
 .debug_frame   0x000061d0       0xb0 build/default/production/_ext/404212886/list.o
 .debug_frame   0x00006280      0x3b4 build/default/production/_ext/404212886/queue.o
 .debug_frame   0x00006634      0x174 build/default/production/_ext/404212886/event_groups.o
 .debug_frame   0x000067a8      0x300 build/default/production/_ext/404212886/stream_buffer.o
 .debug_frame   0x00006aa8       0xd8 build/default/production/_ext/1360937237/app_freertos.o
 .debug_frame   0x00006b80       0x2c build/default/production/_ext/1360937237/main.o
 .debug_frame   0x00006bac      0x22c build/default/production/_ext/1865161661/plib_dmac.o
 .debug_frame   0x00006dd8       0x20 c:/program files/microchip/xc32/v2.50/bin/bin/../../lib/gcc/pic32mx/4.8.3/fpu64\libgcc.a(_udivdi3.o)
 .debug_frame   0x00006df8       0x20 c:/program files/microchip/xc32/v2.50/bin/bin/../../lib/gcc/pic32mx/4.8.3/../../../../pic32mx/lib/fpu64\libpic32.a(default-on-reset.o)
 .debug_frame   0x00006e18       0x20 c:/program files/microchip/xc32/v2.50/bin/bin/../../lib/gcc/pic32mx/4.8.3/../../../../pic32mx/lib/fpu64\libpic32.a(default-on-bootstrap.o)
 .debug_frame   0x00006e38       0x20 c:/program files/microchip/xc32/v2.50/bin/bin/../../lib/gcc/pic32mx/4.8.3/../../../../pic32mx/lib/fpu64\libpic32.a(defaultinterrupt.o)

.debug_str      0x00000000     0x16cc
 *.elf(.debug_str)
 *(.debug_str)
 .debug_str     0x00000000       0x50 build/default/production/_ext/1100529066/drv_sdspi_driver_interface.o
 .debug_str     0x00000050      0x105 build/default/production/_ext/1100529066/drv_sdspi.o
 .debug_str     0x00000155        0x0 build/default/production/_ext/1100529066/drv_sdspi_file_system.o
 .debug_str     0x00000155       0x9a build/default/production/_ext/2070931557/drv_spi.o
 .debug_str     0x000001ef      0x337 build/default/production/_ext/2071311437/drv_usbhs_device.o
 .debug_str     0x00000526      0x16b build/default/production/_ext/2071311437/drv_usbhs.o
 .debug_str     0x00000691       0x40 build/default/production/_ext/1529399856/osal_freertos.o
 .debug_str     0x000006d1       0x14 build/default/production/_ext/1984157808/plib_cache.o
 .debug_str     0x000006e5        0x0 build/default/production/_ext/60165520/plib_clk.o
 .debug_str     0x000006e5       0x25 build/default/production/_ext/1249264884/plib_coretimer.o
 .debug_str     0x0000070a        0x7 build/default/production/_ext/1865200349/plib_evic.o
 .debug_str     0x00000711        0xa build/default/production/_ext/1865254177/plib_gpio.o
 .debug_str     0x0000071b       0x42 build/default/production/_ext/298189674/plib_spi4_master.o
 .debug_str     0x0000075d        0x0 build/default/production/_ext/163028504/xc32_monitor.o
 .debug_str     0x0000075d        0x0 build/default/production/_ext/1014039709/sys_cache.o
 .debug_str     0x0000075d       0x1f build/default/production/_ext/14461671/sys_dma.o
 .debug_str     0x0000077c        0x0 build/default/production/_ext/411819097/ffunicode.o
 .debug_str     0x0000077c       0x16 build/default/production/_ext/411819097/ff.o
 .debug_str     0x00000792       0x21 build/default/production/_ext/565198302/diskio.o
 .debug_str     0x000007b3       0x1e build/default/production/_ext/1269487135/sys_fs_fat_interface.o
 .debug_str     0x000007d1       0xd2 build/default/production/_ext/1269487135/sys_fs_media_manager.o
 .debug_str     0x000008a3       0xa3 build/default/production/_ext/1269487135/sys_fs.o
 .debug_str     0x00000946        0x0 build/default/production/_ext/1881668453/sys_int.o
 .debug_str     0x00000946       0xec build/default/production/_ext/101884895/sys_time.o
 .debug_str     0x00000a32      0x2d0 build/default/production/_ext/308758920/usb_device.o
 .debug_str     0x00000d02       0x17 build/default/production/_ext/308758920/usb_device_cdc_acm.o
 .debug_str     0x00000d19      0x11b build/default/production/_ext/308758920/usb_device_cdc.o
 .debug_str     0x00000e34        0x9 build/default/production/_ext/1171490990/freertos_hooks.o
 .debug_str     0x00000e3d      0x110 build/default/production/_ext/1171490990/initialization.o
 .debug_str     0x00000f4d        0x0 build/default/production/_ext/1171490990/interrupts.o
 .debug_str     0x00000f4d        0x0 build/default/production/_ext/1171490990/exceptions.o
 .debug_str     0x00000f4d        0xd build/default/production/_ext/1171490990/tasks.o
 .debug_str     0x00000f5a       0x9a build/default/production/_ext/1171490990/usb_device_init_data.o
 .debug_str     0x00000ff4       0x57 build/default/production/_ext/1665200909/heap_4.o
 .debug_str     0x0000104b       0x23 build/default/production/_ext/951553246/port.o
 .debug_str     0x0000106e      0x1c4 build/default/production/_ext/404212886/FreeRTOS_tasks.o
 .debug_str     0x00001232       0x2b build/default/production/_ext/404212886/list.o
 .debug_str     0x0000125d      0x14b build/default/production/_ext/404212886/queue.o
 .debug_str     0x000013a8        0x0 build/default/production/_ext/404212886/croutine.o
 .debug_str     0x000013a8       0xe6 build/default/production/_ext/404212886/event_groups.o
 .debug_str     0x0000148e      0x167 build/default/production/_ext/404212886/stream_buffer.o
 .debug_str     0x000015f5        0x0 build/default/production/_ext/404212886/timers.o
 .debug_str     0x000015f5       0x68 build/default/production/_ext/1360937237/app_freertos.o
 .debug_str     0x0000165d        0x0 build/default/production/_ext/1360937237/main.o
 .debug_str     0x0000165d       0x6f build/default/production/_ext/1865161661/plib_dmac.o
 .debug_str     0x000016cc        0x0 c:/program files/microchip/xc32/v2.50/bin/bin/../../lib/gcc/pic32mx/4.8.3/fpu64\libgcc.a(_udivdi3.o)
 .debug_str     0x000016cc        0x0 c:/program files/microchip/xc32/v2.50/bin/bin/../../lib/gcc/pic32mx/4.8.3/../../../../pic32mx/lib/fpu64\libpic32.a(default-on-reset.o)
 .debug_str     0x000016cc        0x0 c:/program files/microchip/xc32/v2.50/bin/bin/../../lib/gcc/pic32mx/4.8.3/../../../../pic32mx/lib/fpu64\libpic32.a(default-on-bootstrap.o)
 .debug_str     0x000016cc        0x0 c:/program files/microchip/xc32/v2.50/bin/bin/../../lib/gcc/pic32mx/4.8.3/../../../../pic32mx/lib/fpu64\libpic32.a(defaultinterrupt.o)

.debug_loc      0x00000000      0xa6a
 *.elf(.debug_loc)
 *(.debug_loc)
 .debug_loc     0x00000000      0xa6a c:/program files/microchip/xc32/v2.50/bin/bin/../../lib/gcc/pic32mx/4.8.3/fpu64\libgcc.a(_udivdi3.o)

.debug_macinfo
 *.elf(.debug_macinfo)
 *(.debug_macinfo)

.debug_weaknames
 *.elf(.debug_weaknames)
 *(.debug_weaknames)

.debug_funcnames
 *.elf(.debug_funcnames)
 *(.debug_funcnames)

.debug_typenames
 *.elf(.debug_typenames)
 *(.debug_typenames)

.debug_varnames
 *.elf(.debug_varnames)
 *(.debug_varnames)

.debug_pubtypes
 *.elf(.debug_pubtypes)
 *(.debug_pubtypes)

.debug_ranges   0x00000000     0x1b00
 *.elf(.debug_ranges)
 *(.debug_ranges)
 .debug_ranges  0x00000000       0x70 build/default/production/_ext/1100529066/drv_sdspi_driver_interface.o
 .debug_ranges  0x00000070      0x158 build/default/production/_ext/1100529066/drv_sdspi.o
 .debug_ranges  0x000001c8       0x10 build/default/production/_ext/1100529066/drv_sdspi_file_system.o
 .debug_ranges  0x000001d8       0xb0 build/default/production/_ext/2070931557/drv_spi.o
 .debug_ranges  0x00000288      0x3b0 build/default/production/_ext/2071311437/drv_usbhs_device.o
 .debug_ranges  0x00000638       0x90 build/default/production/_ext/2071311437/drv_usbhs.o
 .debug_ranges  0x000006c8       0x80 build/default/production/_ext/1529399856/osal_freertos.o
 .debug_ranges  0x00000748       0xb0 build/default/production/_ext/1984157808/plib_cache.o
 .debug_ranges  0x000007f8       0x10 build/default/production/_ext/60165520/plib_clk.o
 .debug_ranges  0x00000808       0x58 build/default/production/_ext/1249264884/plib_coretimer.o
 .debug_ranges  0x00000860       0x58 build/default/production/_ext/1865200349/plib_evic.o
 .debug_ranges  0x000008b8       0x50 build/default/production/_ext/1865254177/plib_gpio.o
 .debug_ranges  0x00000908       0x58 build/default/production/_ext/298189674/plib_spi4_master.o
 .debug_ranges  0x00000960       0x18 build/default/production/_ext/163028504/xc32_monitor.o
 .debug_ranges  0x00000978       0x70 build/default/production/_ext/1014039709/sys_cache.o
 .debug_ranges  0x000009e8       0x20 build/default/production/_ext/14461671/sys_dma.o
 .debug_ranges  0x00000a08       0x20 build/default/production/_ext/411819097/ffunicode.o
 .debug_ranges  0x00000a28      0x270 build/default/production/_ext/411819097/ff.o
 .debug_ranges  0x00000c98       0x50 build/default/production/_ext/565198302/diskio.o
 .debug_ranges  0x00000ce8      0x120 build/default/production/_ext/1269487135/sys_fs_fat_interface.o
 .debug_ranges  0x00000e08       0xa8 build/default/production/_ext/1269487135/sys_fs_media_manager.o
 .debug_ranges  0x00000eb0      0x168 build/default/production/_ext/1269487135/sys_fs.o
 .debug_ranges  0x00001018       0x30 build/default/production/_ext/1881668453/sys_int.o
 .debug_ranges  0x00001048      0x148 build/default/production/_ext/101884895/sys_time.o
 .debug_ranges  0x00001190      0x190 build/default/production/_ext/308758920/usb_device.o
 .debug_ranges  0x00001320       0x10 build/default/production/_ext/308758920/usb_device_cdc_acm.o
 .debug_ranges  0x00001330       0x78 build/default/production/_ext/308758920/usb_device_cdc.o
 .debug_ranges  0x000013a8       0x30 build/default/production/_ext/1171490990/freertos_hooks.o
 .debug_ranges  0x000013d8       0x10 build/default/production/_ext/1171490990/initialization.o
 .debug_ranges  0x000013e8       0x40 build/default/production/_ext/1171490990/interrupts.o
 .debug_ranges  0x00001428       0x48 build/default/production/_ext/1171490990/interrupts_a.o
 .debug_ranges  0x00001470       0x28 build/default/production/_ext/1171490990/exceptions.o
 .debug_ranges  0x00001498       0x38 build/default/production/_ext/1171490990/tasks.o
 .debug_ranges  0x000014d0       0x50 build/default/production/_ext/1665200909/heap_4.o
 .debug_ranges  0x00001520       0x50 build/default/production/_ext/951553246/port.o
 .debug_ranges  0x00001570       0x28 build/default/production/_ext/951553246/port_asm.o
 .debug_ranges  0x00001598      0x1c0 build/default/production/_ext/404212886/FreeRTOS_tasks.o
 .debug_ranges  0x00001758       0x30 build/default/production/_ext/404212886/list.o
 .debug_ranges  0x00001788       0xd8 build/default/production/_ext/404212886/queue.o
 .debug_ranges  0x00001860       0x58 build/default/production/_ext/404212886/event_groups.o
 .debug_ranges  0x000018b8       0xb0 build/default/production/_ext/404212886/stream_buffer.o
 .debug_ranges  0x00001968       0x38 build/default/production/_ext/1360937237/app_freertos.o
 .debug_ranges  0x000019a0       0x10 build/default/production/_ext/1360937237/main.o
 .debug_ranges  0x000019b0       0x88 build/default/production/_ext/1865161661/plib_dmac.o
 .debug_ranges  0x00001a38       0x98 c:/program files/microchip/xc32/v2.50/bin/bin/../../lib/gcc/pic32mx/4.8.3/fpu64\libgcc.a(_udivdi3.o)
 .debug_ranges  0x00001ad0       0x10 c:/program files/microchip/xc32/v2.50/bin/bin/../../lib/gcc/pic32mx/4.8.3/../../../../pic32mx/lib/fpu64\libpic32.a(default-on-reset.o)
 .debug_ranges  0x00001ae0       0x10 c:/program files/microchip/xc32/v2.50/bin/bin/../../lib/gcc/pic32mx/4.8.3/../../../../pic32mx/lib/fpu64\libpic32.a(default-on-bootstrap.o)
 .debug_ranges  0x00001af0       0x10 c:/program files/microchip/xc32/v2.50/bin/bin/../../lib/gcc/pic32mx/4.8.3/../../../../pic32mx/lib/fpu64\libpic32.a(defaultinterrupt.o)

.gnu.attributes
                0x00000000       0x10
 *(.gnu.attributes)
 .gnu.attributes
                0x00000000       0x10 build/default/production/_ext/1100529066/drv_sdspi_driver_interface.o
 .gnu.attributes
                0x00000010       0x10 build/default/production/_ext/1100529066/drv_sdspi.o
 .gnu.attributes
                0x00000020       0x10 build/default/production/_ext/1100529066/drv_sdspi_file_system.o
 .gnu.attributes
                0x00000030       0x10 build/default/production/_ext/2070931557/drv_spi.o
 .gnu.attributes
                0x00000040       0x10 build/default/production/_ext/2071311437/drv_usbhs_device.o
 .gnu.attributes
                0x00000050       0x10 build/default/production/_ext/2071311437/drv_usbhs.o
 .gnu.attributes
                0x00000060       0x10 build/default/production/_ext/1529399856/osal_freertos.o
 .gnu.attributes
                0x00000070       0x10 build/default/production/_ext/1984157808/plib_cache.o
 .gnu.attributes
                0x00000080       0x10 build/default/production/_ext/60165520/plib_clk.o
 .gnu.attributes
                0x00000090       0x10 build/default/production/_ext/1249264884/plib_coretimer.o
 .gnu.attributes
                0x000000a0       0x10 build/default/production/_ext/1865200349/plib_evic.o
 .gnu.attributes
                0x000000b0       0x10 build/default/production/_ext/1865254177/plib_gpio.o
 .gnu.attributes
                0x000000c0       0x10 build/default/production/_ext/298189674/plib_spi4_master.o
 .gnu.attributes
                0x000000d0       0x10 build/default/production/_ext/163028504/xc32_monitor.o
 .gnu.attributes
                0x000000e0       0x10 build/default/production/_ext/1014039709/sys_cache.o
 .gnu.attributes
                0x000000f0       0x10 build/default/production/_ext/14461671/sys_dma.o
 .gnu.attributes
                0x00000100       0x10 build/default/production/_ext/411819097/ffunicode.o
 .gnu.attributes
                0x00000110       0x10 build/default/production/_ext/411819097/ff.o
 .gnu.attributes
                0x00000120       0x10 build/default/production/_ext/565198302/diskio.o
 .gnu.attributes
                0x00000130       0x10 build/default/production/_ext/1269487135/sys_fs_fat_interface.o
 .gnu.attributes
                0x00000140       0x10 build/default/production/_ext/1269487135/sys_fs_media_manager.o
 .gnu.attributes
                0x00000150       0x10 build/default/production/_ext/1269487135/sys_fs.o
 .gnu.attributes
                0x00000160       0x10 build/default/production/_ext/1881668453/sys_int.o
 .gnu.attributes
                0x00000170       0x10 build/default/production/_ext/101884895/sys_time.o
 .gnu.attributes
                0x00000180       0x10 build/default/production/_ext/308758920/usb_device.o
 .gnu.attributes
                0x00000190       0x10 build/default/production/_ext/308758920/usb_device_cdc_acm.o
 .gnu.attributes
                0x000001a0       0x10 build/default/production/_ext/308758920/usb_device_cdc.o
 .gnu.attributes
                0x000001b0       0x10 build/default/production/_ext/1171490990/freertos_hooks.o
 .gnu.attributes
                0x000001c0       0x10 build/default/production/_ext/1171490990/initialization.o
 .gnu.attributes
                0x000001d0       0x10 build/default/production/_ext/1171490990/interrupts.o
 .gnu.attributes
                0x000001e0       0x10 build/default/production/_ext/1171490990/exceptions.o
 .gnu.attributes
                0x000001f0       0x10 build/default/production/_ext/1171490990/tasks.o
 .gnu.attributes
                0x00000200       0x10 build/default/production/_ext/1171490990/usb_device_init_data.o
 .gnu.attributes
                0x00000210       0x10 build/default/production/_ext/1665200909/heap_4.o
 .gnu.attributes
                0x00000220       0x10 build/default/production/_ext/951553246/port.o
 .gnu.attributes
                0x00000230       0x10 build/default/production/_ext/404212886/FreeRTOS_tasks.o
 .gnu.attributes
                0x00000240       0x10 build/default/production/_ext/404212886/list.o
 .gnu.attributes
                0x00000250       0x10 build/default/production/_ext/404212886/queue.o
 .gnu.attributes
                0x00000260       0x10 build/default/production/_ext/404212886/croutine.o
 .gnu.attributes
                0x00000270       0x10 build/default/production/_ext/404212886/event_groups.o
 .gnu.attributes
                0x00000280       0x10 build/default/production/_ext/404212886/stream_buffer.o
 .gnu.attributes
                0x00000290       0x10 build/default/production/_ext/404212886/timers.o
 .gnu.attributes
                0x000002a0       0x10 build/default/production/_ext/1360937237/app_freertos.o
 .gnu.attributes
                0x000002b0       0x10 build/default/production/_ext/1360937237/main.o
 .gnu.attributes
                0x000002c0       0x10 build/default/production/_ext/1865161661/plib_dmac.o
 .gnu.attributes
                0x000002d0       0x10 c:/program files/microchip/xc32/v2.50/bin/bin/../../lib/gcc/pic32mx/4.8.3/fpu64\libgcc.a(_udivdi3.o)
 .gnu.attributes
                0x000002e0       0x10 c:/program files/microchip/xc32/v2.50/bin/bin/../../lib/gcc/pic32mx/4.8.3/../../../../pic32mx/lib/fpu64\libpic32.a(default-on-reset.o)
 .gnu.attributes
                0x000002f0       0x10 c:/program files/microchip/xc32/v2.50/bin/bin/../../lib/gcc/pic32mx/4.8.3/../../../../pic32mx/lib/fpu64\libpic32.a(default-on-bootstrap.o)
 .gnu.attributes
                0x00000300       0x10 c:/program files/microchip/xc32/v2.50/bin/bin/../../lib/gcc/pic32mx/4.8.3/../../../../pic32mx/lib/fpu64\libpic32.a(defaultinterrupt.o)
 .gnu.attributes
                0x00000310       0x10 c:/program files/microchip/xc32/v2.50/bin/bin/../../lib/gcc/pic32mx/4.8.3/../../../../pic32mx/lib/fpu64\liblega-c.a(strncmp.o)
 .gnu.attributes
                0x00000320       0x10 c:/program files/microchip/xc32/v2.50/bin/bin/../../lib/gcc/pic32mx/4.8.3/../../../../pic32mx/lib/fpu64\liblega-c.a(strchr.o)
 .gnu.attributes
                0x00000330       0x10 c:/program files/microchip/xc32/v2.50/bin/bin/../../lib/gcc/pic32mx/4.8.3/../../../../pic32mx/lib/fpu64\liblega-c.a(memmove.o)
                0x9d000000                PROVIDE (__pic32_init_cache_program_base_addr, 0x9d000000)
                0x80000000                PROVIDE (__pic32_init_cache_data_base_addr, 0x80000000)
                0xd0000000                PROVIDE (__pic32_init_sqi_kseg2_virtual_base_addr, 0xd0000000)
                0x30000000                PROVIDE (__pic32_init_sqi_kseg2_physical_base_addr, 0x30000000)
                0x0000001f                PROVIDE (__pic32_init_sqi_kseg2_entrylo0_bitset, 0x1f)
                0xd0000000                __pic32_tlb_0_entryhi = __pic32_init_sqi_kseg2_virtual_base_addr
                0x00c0001f                __pic32_tlb_0_entrylo0 = ((__pic32_init_sqi_kseg2_physical_base_addr >> 0x6) | __pic32_init_sqi_kseg2_entrylo0_bitset)
                0x00c4001f                __pic32_tlb_0_entrylo1 = (__pic32_tlb_0_entrylo0 | ((__pic32_init_sqi_kseg2_physical_base_addr + 0x1000000) >> 0x6))
                0xd2000000                __pic32_tlb_1_entryhi = (__pic32_init_sqi_kseg2_virtual_base_addr + 0x2000000)
                0x00c8001f                __pic32_tlb_1_entrylo0 = (((__pic32_init_sqi_kseg2_physical_base_addr + 0x2000000) >> 0x6) | __pic32_init_sqi_kseg2_entrylo0_bitset)
                0x00cc001f                __pic32_tlb_1_entrylo1 = (__pic32_tlb_1_entrylo0 | 0x40000)
                0xf0000000                PROVIDE (__pic32_init_sqi_kseg3_virtual_base_addr, 0xf0000000)
                0x30000000                PROVIDE (__pic32_init_sqi_kseg3_physical_base_addr, 0x30000000)
                0x00000017                PROVIDE (__pic32_init_sqi_kseg3_entrylo0_bitset, 0x17)
                0xf0000000                __pic32_tlb_2_entryhi = __pic32_init_sqi_kseg3_virtual_base_addr
                0x00c00017                __pic32_tlb_2_entrylo0 = ((__pic32_init_sqi_kseg3_physical_base_addr >> 0x6) | __pic32_init_sqi_kseg3_entrylo0_bitset)
                0x00c40017                __pic32_tlb_2_entrylo1 = (__pic32_tlb_2_entrylo0 | ((__pic32_init_sqi_kseg3_physical_base_addr + 0x1000000) >> 0x6))
                0xf2000000                __pic32_tlb_3_entryhi = (__pic32_init_sqi_kseg3_virtual_base_addr + 0x2000000)
                0x00c80017                __pic32_tlb_3_entrylo0 = (((__pic32_init_sqi_kseg3_physical_base_addr + 0x2000000) >> 0x6) | __pic32_init_sqi_kseg3_entrylo0_bitset)
                0x00cc0017                __pic32_tlb_3_entrylo1 = (__pic32_tlb_3_entrylo0 | 0x40000)
                0xc0000000                PROVIDE (__pic32_init_ebi_kseg2_virtual_base_addr, 0xc0000000)
                0x20000000                PROVIDE (__pic32_init_ebi_kseg2_physical_base_addr, 0x20000000)
                0x0000001f                PROVIDE (__pic32_init_ebi_kseg2_entrylo0_bitset, 0x1f)
                0xc0000000                __pic32_tlb_4_entryhi = __pic32_init_ebi_kseg2_virtual_base_addr
                0x0080001f                __pic32_tlb_4_entrylo0 = ((__pic32_init_ebi_kseg2_physical_base_addr >> 0x6) | __pic32_init_ebi_kseg2_entrylo0_bitset)
                0x0084001f                __pic32_tlb_4_entrylo1 = (__pic32_tlb_4_entrylo0 | ((__pic32_init_ebi_kseg2_physical_base_addr + 0x1000000) >> 0x6))
                0xc2000000                __pic32_tlb_5_entryhi = (__pic32_init_ebi_kseg2_virtual_base_addr + 0x2000000)
                0x0088001f                __pic32_tlb_5_entrylo0 = (((__pic32_init_ebi_kseg2_physical_base_addr + 0x2000000) >> 0x6) | __pic32_init_ebi_kseg2_entrylo0_bitset)
                0x008c001f                __pic32_tlb_5_entrylo1 = (__pic32_tlb_5_entrylo0 | 0x40000)
                0xe0000000                PROVIDE (__pic32_init_ebi_kseg3_virtual_base_addr, 0xe0000000)
                0x20000000                PROVIDE (__pic32_init_ebi_kseg3_physical_base_addr, 0x20000000)
                0x00000017                PROVIDE (__pic32_init_ebi_kseg3_entrylo0_bitset, 0x17)
                0xe0000000                __pic32_tlb_6_entryhi = __pic32_init_ebi_kseg3_virtual_base_addr
                0x00800017                __pic32_tlb_6_entrylo0 = ((__pic32_init_ebi_kseg3_physical_base_addr >> 0x6) | __pic32_init_ebi_kseg3_entrylo0_bitset)
                0x00840017                __pic32_tlb_6_entrylo1 = (__pic32_tlb_6_entrylo0 | ((__pic32_init_ebi_kseg3_physical_base_addr + 0x1000000) >> 0x6))
                0xe2000000                __pic32_tlb_7_entryhi = (__pic32_init_ebi_kseg3_virtual_base_addr + 0x2000000)
                0x00880017                __pic32_tlb_7_entrylo0 = (((__pic32_init_ebi_kseg3_physical_base_addr + 0x2000000) >> 0x6) | __pic32_init_ebi_kseg3_entrylo0_bitset)
                0x008c0017                __pic32_tlb_7_entrylo1 = (__pic32_tlb_7_entrylo0 | 0x40000)

.tlb_init_values
                0xbfc00670       0x60
                0xbfc00670                . = ALIGN (0x4)
                0xbfc00670                __pic32_tlb_init_values_begin = ABSOLUTE (.)
                0xbfc00670        0x4 LONG 0xd0000000 __pic32_tlb_0_entryhi
                0xbfc00674        0x4 LONG 0xc0001f __pic32_tlb_0_entrylo0
                0xbfc00678        0x4 LONG 0xc4001f __pic32_tlb_0_entrylo1
                0xbfc0067c        0x4 LONG 0xd2000000 __pic32_tlb_1_entryhi
                0xbfc00680        0x4 LONG 0xc8001f __pic32_tlb_1_entrylo0
                0xbfc00684        0x4 LONG 0xcc001f __pic32_tlb_1_entrylo1
                0xbfc00688        0x4 LONG 0xf0000000 __pic32_tlb_2_entryhi
                0xbfc0068c        0x4 LONG 0xc00017 __pic32_tlb_2_entrylo0
                0xbfc00690        0x4 LONG 0xc40017 __pic32_tlb_2_entrylo1
                0xbfc00694        0x4 LONG 0xf2000000 __pic32_tlb_3_entryhi
                0xbfc00698        0x4 LONG 0xc80017 __pic32_tlb_3_entrylo0
                0xbfc0069c        0x4 LONG 0xcc0017 __pic32_tlb_3_entrylo1
                0xbfc006a0        0x4 LONG 0xc0000000 __pic32_tlb_4_entryhi
                0xbfc006a4        0x4 LONG 0x80001f __pic32_tlb_4_entrylo0
                0xbfc006a8        0x4 LONG 0x84001f __pic32_tlb_4_entrylo1
                0xbfc006ac        0x4 LONG 0xc2000000 __pic32_tlb_5_entryhi
                0xbfc006b0        0x4 LONG 0x88001f __pic32_tlb_5_entrylo0
                0xbfc006b4        0x4 LONG 0x8c001f __pic32_tlb_5_entrylo1
                0xbfc006b8        0x4 LONG 0xe0000000 __pic32_tlb_6_entryhi
                0xbfc006bc        0x4 LONG 0x800017 __pic32_tlb_6_entrylo0
                0xbfc006c0        0x4 LONG 0x840017 __pic32_tlb_6_entrylo1
                0xbfc006c4        0x4 LONG 0xe2000000 __pic32_tlb_7_entryhi
                0xbfc006c8        0x4 LONG 0x880017 __pic32_tlb_7_entrylo0
                0xbfc006cc        0x4 LONG 0x8c0017 __pic32_tlb_7_entrylo1
                0xbfc006d0                __pic32_tlb_init_values_end = ABSOLUTE (.)
                0x00000008                __pic32_tlb_init_values_count = 0x8
                0x00000200                _min_heap_size = 0x200
LOAD C:\Users\asus3\AppData\Local\Temp\ccX7AMLn.o
LOAD C:\Users\asus3\AppData\Local\Temp\ccVJtIRV.o
LOAD C:\Users\asus3\AppData\Local\Temp\ccDVWfLL.o
LOAD c:/program files/microchip/xc32/v2.50/bin/bin/../../lib/gcc/pic32mx/4.8.3/../../../../pic32mx/lib/./proc/32MZ2048EFM144\default_isr_vectors.o
LOAD c:/program files/microchip/xc32/v2.50/bin/bin/../../lib/gcc/pic32mx/4.8.3/../../../../pic32mx/lib/fpu64\pic32_software_reset.o
LOAD c:/program files/microchip/xc32/v2.50/bin/bin/../../lib/gcc/pic32mx/4.8.3/fpu64\libgcc.a
START GROUP
LOAD c:/program files/microchip/xc32/v2.50/bin/bin/../../lib/gcc/pic32mx/4.8.3/../../../../pic32mx/lib/fpu64\libpic32.a
LOAD c:/program files/microchip/xc32/v2.50/bin/bin/../../lib/gcc/pic32mx/4.8.3/../../../../pic32mx/lib/fpu64\libdebug.a
LOAD c:/program files/microchip/xc32/v2.50/bin/bin/../../lib/gcc/pic32mx/4.8.3/../../../../pic32mx/lib/fpu64\libpic32.a
LOAD c:/program files/microchip/xc32/v2.50/bin/bin/../../lib/gcc/pic32mx/4.8.3/../../../../pic32mx/lib/fpu64\liblega-c.a
LOAD c:/program files/microchip/xc32/v2.50/bin/bin/../../lib/gcc/pic32mx/4.8.3/../../../../pic32mx/lib/fpu64\libmfd.a
LOAD c:/program files/microchip/xc32/v2.50/bin/bin/../../lib/gcc/pic32mx/4.8.3/../../../../pic32mx/lib/fpu64\libm.a
LOAD c:/program files/microchip/xc32/v2.50/bin/bin/../../lib/gcc/pic32mx/4.8.3/../../../../pic32mx/lib/fpu64\libe.a
LOAD c:/program files/microchip/xc32/v2.50/bin/bin/../../lib/gcc/pic32mx/4.8.3/../../../../pic32mx/lib/fpu64\libdspr2.a
LOAD c:/program files/microchip/xc32/v2.50/bin/bin/../../lib/gcc/pic32mx/4.8.3/../../../../pic32mx/lib/fpu64\libdsp.a
LOAD c:/program files/microchip/xc32/v2.50/bin/bin/../../lib/gcc/pic32mx/4.8.3/fpu64\libgcc.a
LOAD c:/program files/microchip/xc32/v2.50/bin/bin/../../lib/gcc/pic32mx/4.8.3/../../../../pic32mx/lib/fpu64\libpic32.a
END GROUP
LOAD c:/program files/microchip/xc32/v2.50/bin/bin/../../lib/gcc/pic32mx/4.8.3/fpu64\libgcc.a
OUTPUT(dist/default/production/daqifi.X.production.elf elf32-tradlittlemips)
LOAD stack
LOAD data_init

.reginfo        0x00000000       0x18
 .reginfo       0x00000000       0x18 c:/program files/microchip/xc32/v2.50/bin/bin/../../lib/gcc/pic32mx/4.8.3/../../../../pic32mx/lib/fpu64\debug-exception-return.o

.stack          0x80028e20      0x400
 .stack         0x80028e20      0x400 stack

.__vector_offset_BF810540_data
                0xbf810540      0x1b0
 .__vector_offset_BF810540_data
                0xbf810540      0x1b0 c:/program files/microchip/xc32/v2.50/bin/bin/../../lib/gcc/pic32mx/4.8.3/../../../../pic32mx/lib/./proc/32MZ2048EFM144\vector_offset_init.o

.__vector_offset_BF8106F4_data
                0xbf8106f4      0x148
 .__vector_offset_BF8106F4_data
                0xbf8106f4      0x148 c:/program files/microchip/xc32/v2.50/bin/bin/../../lib/gcc/pic32mx/4.8.3/../../../../pic32mx/lib/./proc/32MZ2048EFM144\vector_offset_init.o

.__vector_offset_BF810874_data
                0xbf810874       0x18
 .__vector_offset_BF810874_data
                0xbf810874       0x18 c:/program files/microchip/xc32/v2.50/bin/bin/../../lib/gcc/pic32mx/4.8.3/../../../../pic32mx/lib/./proc/32MZ2048EFM144\vector_offset_init.o

.__vector_offset_BF810858_data
                0xbf810858       0x14
 .__vector_offset_BF810858_data
                0xbf810858       0x14 c:/program files/microchip/xc32/v2.50/bin/bin/../../lib/gcc/pic32mx/4.8.3/../../../../pic32mx/lib/./proc/32MZ2048EFM144\vector_offset_init.o

.__vector_offset_BF810840_data
                0xbf810840        0xc
 .__vector_offset_BF810840_data
                0xbf810840        0xc c:/program files/microchip/xc32/v2.50/bin/bin/../../lib/gcc/pic32mx/4.8.3/../../../../pic32mx/lib/./proc/32MZ2048EFM144\vector_offset_init.o

.__vector_offset_BF810850_data
                0xbf810850        0x4
 .__vector_offset_BF810850_data
                0xbf810850        0x4 c:/program files/microchip/xc32/v2.50/bin/bin/../../lib/gcc/pic32mx/4.8.3/../../../../pic32mx/lib/./proc/32MZ2048EFM144\vector_offset_init.o

.__vector_offset_BF810894_data
                0xbf810894        0x4
 .__vector_offset_BF810894_data
                0xbf810894        0x4 c:/program files/microchip/xc32/v2.50/bin/bin/../../lib/gcc/pic32mx/4.8.3/../../../../pic32mx/lib/./proc/32MZ2048EFM144\vector_offset_init.o

.COHERENTBSS$   0xa0000250     0x19a4
 .COHERENTBSS$  0xa0000250      0x800 build/default/production/_ext/1269487135/sys_fs_media_manager.o
 .bss.gSysFsDiskData.gSysFsDiskData
                0xa0000a50      0x210 build/default/production/_ext/565198302/diskio.o
 .bss.gUSBDeviceCDCSerialStateResponse.gUSBDeviceCDCSerialStateResponse
                0xa0000c60       0x10 build/default/production/_ext/308758920/usb_device_cdc.o
 .bss.FATFSFileObject.FATFSFileObject
                0xa0000c70      0x460 build/default/production/_ext/1269487135/sys_fs_fat_interface.o
 .bss.gSYSFSMediaBuffer.gSYSFSMediaBuffer
                0xa00010d0      0x200 build/default/production/_ext/1269487135/sys_fs_media_manager.o
 .bss.cdcReadBuffer.cdcReadBuffer
                0xa00012d0      0x200 build/default/production/_ext/1360937237/app_freertos.o
                0xa00012d0                cdcReadBuffer
 .bss.cdcWriteBuffer.cdcWriteBuffer
                0xa00014d0      0x200 build/default/production/_ext/1360937237/app_freertos.o
                0xa00014d0                cdcWriteBuffer
 .bss.gDrvSPIObj.gDrvSPIObj
                0xa00016d0      0x170 build/default/production/_ext/2070931557/drv_spi.o
 .bss.gDrvSDSPIObj.gDrvSDSPIObj
                0xa0001840      0x108 build/default/production/_ext/1100529066/drv_sdspi.o
 .bss.FATFSDirObject.FATFSDirObject
                0xa0001948       0x70 build/default/production/_ext/1269487135/sys_fs_fat_interface.o
 .bss.FATFSVolume.FATFSVolume
                0xa00019b8      0x23c build/default/production/_ext/1269487135/sys_fs_fat_interface.o

.bss.ucHeap.ucHeap
                0x80001c00    0x1e460
 .bss.ucHeap.ucHeap
                0x80001c00    0x1e460 build/default/production/_ext/1665200909/heap_4.o

.bss.xISRStack.xISRStack
                0x80020060     0x8000
 .bss.xISRStack.xISRStack
                0x80020060     0x8000 build/default/production/_ext/951553246/port.o
                0x80020060                xISRStack

.bss.gSYSFSFileObj.gSYSFSFileObj
                0x80028060      0x220
 .bss.gSYSFSFileObj.gSYSFSFileObj
                0x80028060      0x220 build/default/production/_ext/1269487135/sys_fs.o

.bss.LfnBuf.LfnBuf
                0x80028280      0x200
 .bss.LfnBuf.LfnBuf
                0x80028280      0x200 build/default/production/_ext/411819097/ff.o

.bss.usbDeviceInstance.usbDeviceInstance
                0x80028480      0x164
 .bss.usbDeviceInstance.usbDeviceInstance
                0x80028480      0x164 build/default/production/_ext/308758920/usb_device.o

.bss.pxReadyTasksLists.pxReadyTasksLists
                0x800285e4       0xc8
 .bss.pxReadyTasksLists.pxReadyTasksLists
                0x800285e4       0xc8 build/default/production/_ext/404212886/FreeRTOS_tasks.o

.bss.timers.timers
                0x800286ac       0xb4
 .bss.timers.timers
                0x800286ac       0xb4 build/default/production/_ext/101884895/sys_time.o

.bss.gDrvUSBEndpoints.gDrvUSBEndpoints
                0x80028760       0xa0
 .bss.gDrvUSBEndpoints.gDrvUSBEndpoints
                0x80028760       0xa0 build/default/production/_ext/2071311437/drv_usbhs.o

.bss.gDMAChannelObj.gDMAChannelObj
                0x80028800       0x80
 .bss.gDMAChannelObj.gDMAChannelObj
                0x80028800       0x80 build/default/production/_ext/1865161661/plib_dmac.o

.bss.gUSBDeviceCDCIRP.gUSBDeviceCDCIRP
                0x80028880       0x6c
 .bss.gUSBDeviceCDCIRP.gUSBDeviceCDCIRP
                0x80028880       0x6c build/default/production/_ext/308758920/usb_device_cdc.o

.bss.gSysDMAChannelObj.gSysDMAChannelObj
                0x800288ec       0x60
 .bss.gSysDMAChannelObj.gSysDMAChannelObj
                0x800288ec       0x60 build/default/production/_ext/14461671/sys_dma.o

.bss.drvSPI0ClientObjPool.drvSPI0ClientObjPool
                0x8002894c       0x58
 .bss.drvSPI0ClientObjPool.drvSPI0ClientObjPool
                0x8002894c       0x58 build/default/production/_ext/1171490990/initialization.o

.data.gDrvUSBHSDeviceInterface.gDrvUSBHSDeviceInterface
                0x800289a4       0x50
 .data.gDrvUSBHSDeviceInterface.gDrvUSBHSDeviceInterface
                0x800289a4       0x50 build/default/production/_ext/2071311437/drv_usbhs_device.o
                0x800289a4                gDrvUSBHSDeviceInterface

.bss.gUSBDeviceCDCInstance.gUSBDeviceCDCInstance
                0x800289f4       0x44
 .bss.gUSBDeviceCDCInstance.gUSBDeviceCDCInstance
                0x800289f4       0x44 build/default/production/_ext/308758920/usb_device_cdc.o

.bss.gSystemCounterObj.gSystemCounterObj
                0x80028a38       0x40
 .bss.gSystemCounterObj.gSystemCounterObj
                0x80028a38       0x40 build/default/production/_ext/101884895/sys_time.o

.bss.gSYSFSMediaObject.gSYSFSMediaObject
                0x80028a78       0x2c
 .bss.gSYSFSMediaObject.gSYSFSMediaObject
                0x80028a78       0x2c build/default/production/_ext/1269487135/sys_fs_media_manager.o

.bss.spi4Obj.spi4Obj
                0x80028aa4       0x28
 .bss.spi4Obj.spi4Obj
                0x80028aa4       0x28 build/default/production/_ext/298189674/plib_spi4_master.o

.bss.Files.Files
                0x80028acc       0x20
 .bss.Files.Files
                0x80028acc       0x20 build/default/production/_ext/411819097/ff.o

.bss.gSYSFSDirObj.gSYSFSDirObj
                0x80028aec       0x20
 .bss.gSYSFSDirObj.gSYSFSDirObj
                0x80028aec       0x20 build/default/production/_ext/1269487135/sys_fs.o

.bss.gSYSFSVolumeObject.gSYSFSVolumeObject
                0x80028b0c       0x1c
 .bss.gSYSFSVolumeObject.gSYSFSVolumeObject
                0x80028b0c       0x1c build/default/production/_ext/1269487135/sys_fs_media_manager.o

.data.gSYSFSMediaManagerObj.gSYSFSMediaManagerObj
                0x80028b28       0x18
 .data.gSYSFSMediaManagerObj.gSYSFSMediaManagerObj
                0x80028b28       0x18 build/default/production/_ext/1269487135/sys_fs_media_manager.o

.bss.gSYSFSMountPoint.gSYSFSMountPoint
                0x80028b40       0x18
 .bss.gSYSFSMountPoint.gSYSFSMountPoint
                0x80028b40       0x18 build/default/production/_ext/1269487135/sys_fs.o

.data.gSYSFSVolumeName.gSYSFSVolumeName
                0x80028b58       0x14
 .data.gSYSFSVolumeName.gSYSFSVolumeName
                0x80028b58       0x14 build/default/production/_ext/1269487135/sys_fs_media_manager.o

.bss.drvSDSPI0ClientObjPool.drvSDSPI0ClientObjPool
                0x80028b6c       0x14
 .bss.drvSDSPI0ClientObjPool.drvSDSPI0ClientObjPool
                0x80028b6c       0x14 build/default/production/_ext/1171490990/initialization.o

.bss.xDelayedTaskList1.xDelayedTaskList1
                0x80028b80       0x14
 .bss.xDelayedTaskList1.xDelayedTaskList1
                0x80028b80       0x14 build/default/production/_ext/404212886/FreeRTOS_tasks.o

.bss.xDelayedTaskList2.xDelayedTaskList2
                0x80028b94       0x14
 .bss.xDelayedTaskList2.xDelayedTaskList2
                0x80028b94       0x14 build/default/production/_ext/404212886/FreeRTOS_tasks.o

.bss.xPendingReadyList.xPendingReadyList
                0x80028ba8       0x14
 .bss.xPendingReadyList.xPendingReadyList
                0x80028ba8       0x14 build/default/production/_ext/404212886/FreeRTOS_tasks.o

.bss.xTasksWaitingTermination.xTasksWaitingTermination
                0x80028bbc       0x14
 .bss.xTasksWaitingTermination.xTasksWaitingTermination
                0x80028bbc       0x14 build/default/production/_ext/404212886/FreeRTOS_tasks.o

.bss.xSuspendedTaskList.xSuspendedTaskList
                0x80028bd0       0x14
 .bss.xSuspendedTaskList.xSuspendedTaskList
                0x80028bd0       0x14 build/default/production/_ext/404212886/FreeRTOS_tasks.o

.data.switchPromptUSB.switchPromptUSB
                0x80028bf0       0x10
 .data.switchPromptUSB.switchPromptUSB
                0x80028bf0       0x10 build/default/production/_ext/1360937237/app_freertos.o
                0x80028bf0                switchPromptUSB

._debug_exception
                0xbfc00480       0x2c
 ._debug_exception
                0xbfc00480       0x2c c:/program files/microchip/xc32/v2.50/bin/bin/../../lib/gcc/pic32mx/4.8.3/../../../../pic32mx/lib/fpu64\debug-exception-return.o
                0xbfc00480                __DbgExecReturn

.text.f_mkfs    0x9d002504     0x1268
 .text.f_mkfs   0x9d002504     0x1268 build/default/production/_ext/411819097/ff.o
                0x9d002504                f_mkfs

.text.F_DRV_USBHS_DEVICE_Tasks_ISR
                0x9d00376c     0x10c8
 .text.F_DRV_USBHS_DEVICE_Tasks_ISR
                0x9d00376c     0x10c8 build/default/production/_ext/2071311437/drv_usbhs_device.o
                0x9d00376c                F_DRV_USBHS_DEVICE_Tasks_ISR

.text.DRV_USBHS_DEVICE_IRPSubmit
                0x9d004834      0x8f4
 .text.DRV_USBHS_DEVICE_IRPSubmit
                0x9d004834      0x8f4 build/default/production/_ext/2071311437/drv_usbhs_device.o
                0x9d004834                DRV_USBHS_DEVICE_IRPSubmit

.text.create_name
                0x9d005128      0x860
 .text.create_name
                0x9d005128      0x860 build/default/production/_ext/411819097/ff.o

.dinit          0x9d005988      0x840
 .dinit         0x9d005988      0x840 data_init

.text.f_printf  0x9d0061c8      0x7f4
 .text.f_printf
                0x9d0061c8      0x7f4 build/default/production/_ext/411819097/ff.o
                0x9d0061c8                f_printf

.text.mount_volume
                0x9d0069bc      0x7c8
 .text.mount_volume
                0x9d0069bc      0x7c8 build/default/production/_ext/411819097/ff.o

.text           0x9d007184      0x6bc
 .text          0x9d007184      0x6bc build/default/production/_ext/1984157808/plib_cache_pic32mz.o
                0x9d007184                _pic32_init_cache
                0x9d007288                _pic32_clean_cache
                0x9d0072b4                _pic32_clean_dcache
                0x9d00730c                _pic32_clean_dcache_nowrite
                0x9d007364                _pic32_clean_icache
                0x9d0073bc                _pic32_flush_cache
                0x9d0073e8                _pic32_flush_dcache
                0x9d00747c                _pic32_flush_icache
                0x9d007510                _pic32_lock_dcache
                0x9d007568                _pic32_lock_icache
                0x9d0075c0                _pic32_sync_icache
                0x9d0075fc                _pic32_get_dcache_associativity
                0x9d007630                _pic32_get_icache_associativity
                0x9d007668                _pic32_get_dcache_linesize
                0x9d0076ac                _pic32_get_icache_linesize
                0x9d0076f4                _pic32_get_dcache_lines_per_way
                0x9d007730                _pic32_get_icache_lines_per_way
                0x9d007770                _pic32_get_dcache_size
                0x9d0077d8                _pic32_get_icache_size

.text.f_open    0x9d007840      0x628
 .text.f_open   0x9d007840      0x628 build/default/production/_ext/411819097/ff.o
                0x9d007840                f_open

.text.f_write   0x9d007e68      0x5a8
 .text.f_write  0x9d007e68      0x5a8 build/default/production/_ext/411819097/ff.o
                0x9d007e68                f_write

.text.SYS_FS_MEDIA_MANAGER_SectorWrite
                0x9d008410      0x56c
 .text.SYS_FS_MEDIA_MANAGER_SectorWrite
                0x9d008410      0x56c build/default/production/_ext/1269487135/sys_fs_media_manager.o
                0x9d008410                SYS_FS_MEDIA_MANAGER_SectorWrite

.text.SYS_FS_MEDIA_MANAGER_Tasks
                0x9d00897c      0x51c
 .text.SYS_FS_MEDIA_MANAGER_Tasks
                0x9d00897c      0x51c build/default/production/_ext/1269487135/sys_fs_media_manager.o
                0x9d00897c                SYS_FS_MEDIA_MANAGER_Tasks

.text.SPI4_WriteRead
                0x9d008e98      0x518
 .text.SPI4_WriteRead
                0x9d008e98      0x518 build/default/production/_ext/298189674/plib_spi4_master.o
                0x9d008e98                SPI4_WriteRead

.text.f_lseek   0x9d0093b0      0x4ec
 .text.f_lseek  0x9d0093b0      0x4ec build/default/production/_ext/411819097/ff.o
                0x9d0093b0                f_lseek

.text.f_read    0x9d00989c      0x4e0
 .text.f_read   0x9d00989c      0x4e0 build/default/production/_ext/411819097/ff.o
                0x9d00989c                f_read

.text.SYS_FS_Mount
                0x9d009d7c      0x4c4
 .text.SYS_FS_Mount
                0x9d009d7c      0x4c4 build/default/production/_ext/1269487135/sys_fs.o
                0x9d009d7c                SYS_FS_Mount

.text.DRV_USBHS_Tasks
                0x9d00a240      0x49c
 .text.DRV_USBHS_Tasks
                0x9d00a240      0x49c build/default/production/_ext/2071311437/drv_usbhs.o
                0x9d00a240                DRV_USBHS_Tasks

.text.create_partition
                0x9d00a6dc      0x494
 .text.create_partition
                0x9d00a6dc      0x494 build/default/production/_ext/411819097/ff.o

.text.DRV_USBHS_DEVICE_EndpointDisable
                0x9d00ab70      0x470
 .text.DRV_USBHS_DEVICE_EndpointDisable
                0x9d00ab70      0x470 build/default/production/_ext/2071311437/drv_usbhs_device.o
                0x9d00ab70                DRV_USBHS_DEVICE_EndpointDisable

.text.SPI4_RX_InterruptHandler
                0x9d00afe0      0x46c
 .text.SPI4_RX_InterruptHandler
                0x9d00afe0      0x46c build/default/production/_ext/298189674/plib_spi4_master.o
                0x9d00afe0                SPI4_RX_InterruptHandler

.text.DRV_USBHS_DEVICE_EndpointEnable
                0x9d00b44c      0x468
 .text.DRV_USBHS_DEVICE_EndpointEnable
                0x9d00b44c      0x468 build/default/production/_ext/2071311437/drv_usbhs_device.o
                0x9d00b44c                DRV_USBHS_DEVICE_EndpointEnable

.text.get_fileinfo
                0x9d00b8b4      0x45c
 .text.get_fileinfo
                0x9d00b8b4      0x45c build/default/production/_ext/411819097/ff.o

.text           0x9d00bd10      0x458
 .text          0x9d00bd10      0x458 c:/program files/microchip/xc32/v2.50/bin/bin/../../lib/gcc/pic32mx/4.8.3/fpu64\libgcc.a(_udivdi3.o)
                0x9d00bd10                __udivdi3

.text.F_DRV_USBHS_ProcessIRPFIFO
                0x9d00c168      0x450
 .text.F_DRV_USBHS_ProcessIRPFIFO
                0x9d00c168      0x450 build/default/production/_ext/2071311437/drv_usbhs_device.o
                0x9d00c168                F_DRV_USBHS_ProcessIRPFIFO

.text.lDRV_SDSPI_CommandSend
                0x9d00c5b8      0x444
 .text.lDRV_SDSPI_CommandSend
                0x9d00c5b8      0x444 build/default/production/_ext/1100529066/drv_sdspi.o

.text.DRV_SPI_WriteReadTransfer
                0x9d00c9fc      0x420
 .text.DRV_SPI_WriteReadTransfer
                0x9d00c9fc      0x420 build/default/production/_ext/2070931557/drv_spi.o
                0x9d00c9fc                DRV_SPI_WriteReadTransfer

.text.SYS_FS_MEDIA_T_MANAGER_PopulateVolume
                0x9d00ce1c      0x414
 .text.SYS_FS_MEDIA_T_MANAGER_PopulateVolume
                0x9d00ce1c      0x414 build/default/production/_ext/1269487135/sys_fs_media_manager.o

.text.lDRV_SDSPI_SetupXfer
                0x9d00d230      0x408
 .text.lDRV_SDSPI_SetupXfer
                0x9d00d230      0x408 build/default/production/_ext/1100529066/drv_sdspi.o

.text.lDRV_SPI_StartDMATransfer
                0x9d00d638      0x400
 .text.lDRV_SPI_StartDMATransfer
                0x9d00d638      0x400 build/default/production/_ext/2070931557/drv_spi.o

.text.F_DRV_USBHS_DEVICE_Tasks_ISR_USBDMA
                0x9d00da38      0x3f0
 .text.F_DRV_USBHS_DEVICE_Tasks_ISR_USBDMA
                0x9d00da38      0x3f0 build/default/production/_ext/2071311437/drv_usbhs_device.o
                0x9d00da38                F_DRV_USBHS_DEVICE_Tasks_ISR_USBDMA

.text           0x9d00de28      0x3ec
 .text          0x9d00de28      0x3ec build/default/production/_ext/951553246/port_asm.o
                0x9d00de28                vPortStartFirstTask
                0x9d00dffc                vPortInitialiseFPSCR
                0x9d00e18c                vPortFPUReadback

.text.F_USB_DEVICE_ProcessStandardDeviceSetRequests
                0x9d00e214      0x3dc
 .text.F_USB_DEVICE_ProcessStandardDeviceSetRequests
                0x9d00e214      0x3dc build/default/production/_ext/308758920/usb_device.o
                0x9d00e214                F_USB_DEVICE_ProcessStandardDeviceSetRequests

.text.f_rename  0x9d00e5f0      0x3b8
 .text.f_rename
                0x9d00e5f0      0x3b8 build/default/production/_ext/411819097/ff.o
                0x9d00e5f0                f_rename

.text.F_USB_DEVICE_ProcessStandardDeviceGetRequests
                0x9d00e9a8      0x3ac
 .text.F_USB_DEVICE_ProcessStandardDeviceGetRequests
                0x9d00e9a8      0x3ac build/default/production/_ext/308758920/usb_device.o
                0x9d00e9a8                F_USB_DEVICE_ProcessStandardDeviceGetRequests

.text.dir_register
                0x9d00ed54      0x3a4
 .text.dir_register
                0x9d00ed54      0x3a4 build/default/production/_ext/411819097/ff.o

.text.xTaskIncrementTick
                0x9d00f0f8      0x3a4
 .text.xTaskIncrementTick
                0x9d00f0f8      0x3a4 build/default/production/_ext/404212886/FreeRTOS_tasks.o
                0x9d00f0f8                xTaskIncrementTick

.text.xQueueGenericSend
                0x9d00f49c      0x3a0
 .text.xQueueGenericSend
                0x9d00f49c      0x3a0 build/default/production/_ext/404212886/queue.o
                0x9d00f49c                xQueueGenericSend

.text.create_chain
                0x9d00f83c      0x39c
 .text.create_chain
                0x9d00f83c      0x39c build/default/production/_ext/411819097/ff.o

.text.USBDevice_Task
                0x9d00fbd8      0x394
 .text.USBDevice_Task
                0x9d00fbd8      0x394 build/default/production/_ext/1360937237/app_freertos.o
                0x9d00fbd8                USBDevice_Task

.text.USB_DEVICE_CDC_Write
                0x9d00ff6c      0x390
 .text.USB_DEVICE_CDC_Write
                0x9d00ff6c      0x390 build/default/production/_ext/308758920/usb_device_cdc.o
                0x9d00ff6c                USB_DEVICE_CDC_Write

.text.xQueueSemaphoreTake
                0x9d0102fc      0x38c
 .text.xQueueSemaphoreTake
                0x9d0102fc      0x38c build/default/production/_ext/404212886/queue.o
                0x9d0102fc                xQueueSemaphoreTake

.text.F_USB_DEVICE_EventHandler
                0x9d010688      0x388
 .text.F_USB_DEVICE_EventHandler
                0x9d010688      0x388 build/default/production/_ext/308758920/usb_device.o
                0x9d010688                F_USB_DEVICE_EventHandler

.text.DRV_USBHS_DEVICE_EndpointStall
                0x9d010a10      0x370
 .text.DRV_USBHS_DEVICE_EndpointStall
                0x9d010a10      0x370 build/default/production/_ext/2071311437/drv_usbhs_device.o
                0x9d010a10                DRV_USBHS_DEVICE_EndpointStall

.text.put_fat   0x9d010d80      0x36c
 .text.put_fat  0x9d010d80      0x36c build/default/production/_ext/411819097/ff.o

.text.f_setlabel
                0x9d0110ec      0x36c
 .text.f_setlabel
                0x9d0110ec      0x36c build/default/production/_ext/411819097/ff.o
                0x9d0110ec                f_setlabel

.text.SD_Task   0x9d011458      0x364
 .text.SD_Task  0x9d011458      0x364 build/default/production/_ext/1360937237/app_freertos.o
                0x9d011458                SD_Task

.text.f_getcwd  0x9d0117bc      0x35c
 .text.f_getcwd
                0x9d0117bc      0x35c build/default/production/_ext/411819097/ff.o
                0x9d0117bc                f_getcwd

.text.F_USB_DEVICE_ControlTransferHandler
                0x9d011b18      0x350
 .text.F_USB_DEVICE_ControlTransferHandler
                0x9d011b18      0x350 build/default/production/_ext/308758920/usb_device.o
                0x9d011b18                F_USB_DEVICE_ControlTransferHandler

.text.xTaskResumeAll
                0x9d011e68      0x350
 .text.xTaskResumeAll
                0x9d011e68      0x350 build/default/production/_ext/404212886/FreeRTOS_tasks.o
                0x9d011e68                xTaskResumeAll

.text.SYS_FS_MEDIA_T_MANAGER_AnalyzeFileSystem
                0x9d0121b8      0x340
 .text.SYS_FS_MEDIA_T_MANAGER_AnalyzeFileSystem
                0x9d0121b8      0x340 build/default/production/_ext/1269487135/sys_fs_media_manager.o

.text.SYS_FS_FileOpen
                0x9d0124f8      0x33c
 .text.SYS_FS_FileOpen
                0x9d0124f8      0x33c build/default/production/_ext/1269487135/sys_fs.o
                0x9d0124f8                SYS_FS_FileOpen

.text.F_USB_DEVICE_Other_Speed_Descriptor_Request
                0x9d012834      0x338
 .text.F_USB_DEVICE_Other_Speed_Descriptor_Request
                0x9d012834      0x338 build/default/production/_ext/308758920/usb_device.o
                0x9d012834                F_USB_DEVICE_Other_Speed_Descriptor_Request

.text.lDRV_SDSPI_MediaInitialize
                0x9d012b6c      0x324
 .text.lDRV_SDSPI_MediaInitialize
                0x9d012b6c      0x324 build/default/production/_ext/1100529066/drv_sdspi.o

.text.lDRV_SDSPI_AttachDetachTasks
                0x9d012e90      0x324
 .text.lDRV_SDSPI_AttachDetachTasks
                0x9d012e90      0x324 build/default/production/_ext/1100529066/drv_sdspi.o

.text.FATFS_unmount
                0x9d0131b4      0x324
 .text.FATFS_unmount
                0x9d0131b4      0x324 build/default/production/_ext/1269487135/sys_fs_fat_interface.o
                0x9d0131b4                FATFS_unmount

.text.xQueueReceive
                0x9d0134d8      0x320
 .text.xQueueReceive
                0x9d0134d8      0x320 build/default/production/_ext/404212886/queue.o
                0x9d0134d8                xQueueReceive

.text.DRV_USBHS_DEVICE_Detach
                0x9d0137f8      0x318
 .text.DRV_USBHS_DEVICE_Detach
                0x9d0137f8      0x318 build/default/production/_ext/2071311437/drv_usbhs_device.o
                0x9d0137f8                DRV_USBHS_DEVICE_Detach

.text.DRV_SPI_Initialize
                0x9d013b10      0x30c
 .text.DRV_SPI_Initialize
                0x9d013b10      0x30c build/default/production/_ext/2070931557/drv_spi.o
                0x9d013b10                DRV_SPI_Initialize

.text.DRV_USBHS_DEVICE_EndpointStallClear
                0x9d013e1c      0x308
 .text.DRV_USBHS_DEVICE_EndpointStallClear
                0x9d013e1c      0x308 build/default/production/_ext/2071311437/drv_usbhs_device.o
                0x9d013e1c                DRV_USBHS_DEVICE_EndpointStallClear

.text.SYS_DMA_ChannelTransfer
                0x9d014124      0x308
 .text.SYS_DMA_ChannelTransfer
                0x9d014124      0x308 build/default/production/_ext/14461671/sys_dma.o
                0x9d014124                SYS_DMA_ChannelTransfer

.text.USB_DEVICE_CDC_Read
                0x9d01442c      0x308
 .text.USB_DEVICE_CDC_Read
                0x9d01442c      0x308 build/default/production/_ext/308758920/usb_device_cdc.o
                0x9d01442c                USB_DEVICE_CDC_Read

.text.xTaskRemoveFromEventList
                0x9d014734      0x308
 .text.xTaskRemoveFromEventList
                0x9d014734      0x308 build/default/production/_ext/404212886/FreeRTOS_tasks.o
                0x9d014734                xTaskRemoveFromEventList

.text.f_mkdir   0x9d014a3c      0x2ec
 .text.f_mkdir  0x9d014a3c      0x2ec build/default/production/_ext/411819097/ff.o
                0x9d014a3c                f_mkdir

.text.dir_find  0x9d014d28      0x2e0
 .text.dir_find
                0x9d014d28      0x2e0 build/default/production/_ext/411819097/ff.o

.text.APP_USBDeviceCDCEventHandler
                0x9d015008      0x2e0
 .text.APP_USBDeviceCDCEventHandler
                0x9d015008      0x2e0 build/default/production/_ext/1360937237/app_freertos.o
                0x9d015008                APP_USBDeviceCDCEventHandler

.text.DRV_SPI_Open
                0x9d0152e8      0x2d8
 .text.DRV_SPI_Open
                0x9d0152e8      0x2d8 build/default/production/_ext/2070931557/drv_spi.o
                0x9d0152e8                DRV_SPI_Open

.text.F_USB_DEVICE_Ep0ReceiveCompleteCallback
                0x9d0155c0      0x2d8
 .text.F_USB_DEVICE_Ep0ReceiveCompleteCallback
                0x9d0155c0      0x2d8 build/default/production/_ext/308758920/usb_device.o
                0x9d0155c0                F_USB_DEVICE_Ep0ReceiveCompleteCallback

.text.DRV_USBHS_DEVICE_IRPCancelAll
                0x9d015898      0x2d4
 .text.DRV_USBHS_DEVICE_IRPCancelAll
                0x9d015898      0x2d4 build/default/production/_ext/2071311437/drv_usbhs_device.o
                0x9d015898                DRV_USBHS_DEVICE_IRPCancelAll

.text.f_getfree
                0x9d015b6c      0x2c8
 .text.f_getfree
                0x9d015b6c      0x2c8 build/default/production/_ext/411819097/ff.o
                0x9d015b6c                f_getfree

.text.F_USB_DEVICE_CDC_Initialization
                0x9d015e34      0x2c8
 .text.F_USB_DEVICE_CDC_Initialization
                0x9d015e34      0x2c8 build/default/production/_ext/308758920/usb_device_cdc.o
                0x9d015e34                F_USB_DEVICE_CDC_Initialization

.text.lDRV_SPI_RX_DMA_CallbackHandler
                0x9d0160fc      0x2c4
 .text.lDRV_SPI_RX_DMA_CallbackHandler
                0x9d0160fc      0x2c4 build/default/production/_ext/2070931557/drv_spi.o

.text.disk_write
                0x9d0163c0      0x2bc
 .text.disk_write
                0x9d0163c0      0x2bc build/default/production/_ext/565198302/diskio.o
                0x9d0163c0                disk_write

.text.USB_DEVICE_Initialize
                0x9d01667c      0x2bc
 .text.USB_DEVICE_Initialize
                0x9d01667c      0x2bc build/default/production/_ext/308758920/usb_device.o
                0x9d01667c                USB_DEVICE_Initialize

.text.DRV_SDSPI_Open
                0x9d016938      0x2ac
 .text.DRV_SDSPI_Open
                0x9d016938      0x2ac build/default/production/_ext/1100529066/drv_sdspi.o
                0x9d016938                DRV_SDSPI_Open

.text.SYS_TIME_HwTimerCompareUpdate
                0x9d016be4      0x2ac
 .text.SYS_TIME_HwTimerCompareUpdate
                0x9d016be4      0x2ac build/default/production/_ext/101884895/sys_time.o

.text.disk_read
                0x9d016e90      0x2a0
 .text.disk_read
                0x9d016e90      0x2a0 build/default/production/_ext/565198302/diskio.o
                0x9d016e90                disk_read

.text.SYS_FS_Unmount
                0x9d017130      0x2a0
 .text.SYS_FS_Unmount
                0x9d017130      0x2a0 build/default/production/_ext/1269487135/sys_fs.o
                0x9d017130                SYS_FS_Unmount

.text.SYS_FS_GetDisk
                0x9d0173d0      0x29c
 .text.SYS_FS_GetDisk
                0x9d0173d0      0x29c build/default/production/_ext/1269487135/sys_fs.o

.text.SYS_FS_Initialize
                0x9d01766c      0x298
 .text.SYS_FS_Initialize
                0x9d01766c      0x298 build/default/production/_ext/1269487135/sys_fs.o
                0x9d01766c                SYS_FS_Initialize

.text.dir_read  0x9d017904      0x294
 .text.dir_read
                0x9d017904      0x294 build/default/production/_ext/411819097/ff.o

.text.gen_numname
                0x9d017b98      0x28c
 .text.gen_numname
                0x9d017b98      0x28c build/default/production/_ext/411819097/ff.o

.text.vTaskPriorityDisinheritAfterTimeout
                0x9d017e24      0x28c
 .text.vTaskPriorityDisinheritAfterTimeout
                0x9d017e24      0x28c build/default/production/_ext/404212886/FreeRTOS_tasks.o
                0x9d017e24                vTaskPriorityDisinheritAfterTimeout

.text.DMAC_ChannelSetAddresses
                0x9d0180b0      0x28c
 .text.DMAC_ChannelSetAddresses
                0x9d0180b0      0x28c build/default/production/_ext/1865161661/plib_dmac.o

.text.SYS_TIME_CounterInit
                0x9d01833c      0x284
 .text.SYS_TIME_CounterInit
                0x9d01833c      0x284 build/default/production/_ext/101884895/sys_time.o

.text.dir_next  0x9d0185c0      0x280
 .text.dir_next
                0x9d0185c0      0x280 build/default/production/_ext/411819097/ff.o

.text.pvPortMalloc
                0x9d018840      0x280
 .text.pvPortMalloc
                0x9d018840      0x280 build/default/production/_ext/1665200909/heap_4.o
                0x9d018840                pvPortMalloc

.text.APP_USBDeviceEventHandler
                0x9d018ac0      0x280
 .text.APP_USBDeviceEventHandler
                0x9d018ac0      0x280 build/default/production/_ext/1360937237/app_freertos.o
                0x9d018ac0                APP_USBDeviceEventHandler

.text.get_fat   0x9d018d40      0x27c
 .text.get_fat  0x9d018d40      0x27c build/default/production/_ext/411819097/ff.o

.text.DRV_SDSPI_Initialize
                0x9d018fbc      0x268
 .text.DRV_SDSPI_Initialize
                0x9d018fbc      0x268 build/default/production/_ext/1100529066/drv_sdspi.o
                0x9d018fbc                DRV_SDSPI_Initialize

.text.F_USB_DEVICE_CDC_ACMSetUpPacketHandler
                0x9d019224      0x268
 .text.F_USB_DEVICE_CDC_ACMSetUpPacketHandler
                0x9d019224      0x268 build/default/production/_ext/308758920/usb_device_cdc_acm.o
                0x9d019224                F_USB_DEVICE_CDC_ACMSetUpPacketHandler

.text.f_truncate
                0x9d01948c      0x264
 .text.f_truncate
                0x9d01948c      0x264 build/default/production/_ext/411819097/ff.o
                0x9d01948c                f_truncate

.text.check_fs  0x9d0196f0      0x260
 .text.check_fs
                0x9d0196f0      0x260 build/default/production/_ext/411819097/ff.o

.text.ff_wtoupper
                0x9d019950      0x25c
 .text.ff_wtoupper
                0x9d019950      0x25c build/default/production/_ext/411819097/ffunicode.o
                0x9d019950                ff_wtoupper

.text.FATFS_open
                0x9d019bac      0x254
 .text.FATFS_open
                0x9d019bac      0x254 build/default/production/_ext/1269487135/sys_fs_fat_interface.o
                0x9d019bac                FATFS_open

.text.f_unlink  0x9d019e00      0x250
 .text.f_unlink
                0x9d019e00      0x250 build/default/production/_ext/411819097/ff.o
                0x9d019e00                f_unlink

.text.follow_path
                0x9d01a050      0x24c
 .text.follow_path
                0x9d01a050      0x24c build/default/production/_ext/411819097/ff.o

.text.xTaskPriorityInherit
                0x9d01a29c      0x24c
 .text.xTaskPriorityInherit
                0x9d01a29c      0x24c build/default/production/_ext/404212886/FreeRTOS_tasks.o
                0x9d01a29c                xTaskPriorityInherit

.text.F_DRV_USBHS_DEVICE_FIFOAllocate
                0x9d01a4e8      0x248
 .text.F_DRV_USBHS_DEVICE_FIFOAllocate
                0x9d01a4e8      0x248 build/default/production/_ext/2071311437/drv_usbhs_device.o
                0x9d01a4e8                F_DRV_USBHS_DEVICE_FIFOAllocate

.text.USB_DEVICE_Tasks
                0x9d01a730      0x248
 .text.USB_DEVICE_Tasks
                0x9d01a730      0x248 build/default/production/_ext/308758920/usb_device.o
                0x9d01a730                USB_DEVICE_Tasks

.text.inc_share
                0x9d01a978      0x240
 .text.inc_share
                0x9d01a978      0x240 build/default/production/_ext/411819097/ff.o

.text.f_getlabel
                0x9d01abb8      0x23c
 .text.f_getlabel
                0x9d01abb8      0x23c build/default/production/_ext/411819097/ff.o
                0x9d01abb8                f_getlabel

.text.FATFS_mount
                0x9d01adf4      0x238
 .text.FATFS_mount
                0x9d01adf4      0x238 build/default/production/_ext/1269487135/sys_fs_fat_interface.o
                0x9d01adf4                FATFS_mount

.text.xQueueGenericSendFromISR
                0x9d01b02c      0x238
 .text.xQueueGenericSendFromISR
                0x9d01b02c      0x238 build/default/production/_ext/404212886/queue.o
                0x9d01b02c                xQueueGenericSendFromISR

.text.xTaskPriorityDisinherit
                0x9d01b264      0x230
 .text.xTaskPriorityDisinherit
                0x9d01b264      0x230 build/default/production/_ext/404212886/FreeRTOS_tasks.o
                0x9d01b264                xTaskPriorityDisinherit

.text.DRV_USBHS_Initialize
                0x9d01b494      0x228
 .text.DRV_USBHS_Initialize
                0x9d01b494      0x228 build/default/production/_ext/2071311437/drv_usbhs.o
                0x9d01b494                DRV_USBHS_Initialize

.text.dir_sdi   0x9d01b6bc      0x220
 .text.dir_sdi  0x9d01b6bc      0x220 build/default/production/_ext/411819097/ff.o

.text.DMAC_ChannelTransfer
                0x9d01b8dc      0x21c
 .text.DMAC_ChannelTransfer
                0x9d01b8dc      0x21c build/default/production/_ext/1865161661/plib_dmac.o
                0x9d01b8dc                DMAC_ChannelTransfer

.text.SYS_TIME_AddToList
                0x9d01baf8      0x210
 .text.SYS_TIME_AddToList
                0x9d01baf8      0x210 build/default/production/_ext/101884895/sys_time.o

.text.prvInitialiseNewTask
                0x9d01bd08      0x20c
 .text.prvInitialiseNewTask
                0x9d01bd08      0x20c build/default/production/_ext/404212886/FreeRTOS_tasks.o

.text.xQueueGenericReset
                0x9d01bf14      0x200
 .text.xQueueGenericReset
                0x9d01bf14      0x200 build/default/production/_ext/404212886/queue.o
                0x9d01bf14                xQueueGenericReset

.text.SPI4_TX_InterruptHandler
                0x9d01c114      0x1fc
 .text.SPI4_TX_InterruptHandler
                0x9d01c114      0x1fc build/default/production/_ext/298189674/plib_spi4_master.o
                0x9d01c114                SPI4_TX_InterruptHandler

.text.prvAddNewTaskToReadyList
                0x9d01c310      0x1f8
 .text.prvAddNewTaskToReadyList
                0x9d01c310      0x1f8 build/default/production/_ext/404212886/FreeRTOS_tasks.o

.rodata.cvt1.30278.cvt1
                0x9d01c508      0x1f4
 .rodata.cvt1.30278.cvt1
                0x9d01c508      0x1f4 build/default/production/_ext/411819097/ffunicode.o

.text.xQueueGiveFromISR
                0x9d01c6fc      0x1f0
 .text.xQueueGiveFromISR
                0x9d01c6fc      0x1f0 build/default/production/_ext/404212886/queue.o
                0x9d01c6fc                xQueueGiveFromISR

.text.SYS_FS_MEDIA_T_MANAGER_FindNextMedia
                0x9d01c8ec      0x1ec
 .text.SYS_FS_MEDIA_T_MANAGER_FindNextMedia
                0x9d01c8ec      0x1ec build/default/production/_ext/1269487135/sys_fs_media_manager.o

.text.f_sync    0x9d01cad8      0x1e8
 .text.f_sync   0x9d01cad8      0x1e8 build/default/production/_ext/411819097/ff.o
                0x9d01cad8                f_sync

.text.F_USB_DEVICE_ProcessStandardEndpointRequest
                0x9d01ccc0      0x1e4
 .text.F_USB_DEVICE_ProcessStandardEndpointRequest
                0x9d01ccc0      0x1e4 build/default/production/_ext/308758920/usb_device.o
                0x9d01ccc0                F_USB_DEVICE_ProcessStandardEndpointRequest

.text.lDRV_SDSPI_Write
                0x9d01cea4      0x1d4
 .text.lDRV_SDSPI_Write
                0x9d01cea4      0x1d4 build/default/production/_ext/1100529066/drv_sdspi.o

.text.cmp_lfn   0x9d01d078      0x1c8
 .text.cmp_lfn  0x9d01d078      0x1c8 build/default/production/_ext/411819097/ff.o

.text.prvCopyDataToQueue
                0x9d01d240      0x1c8
 .text.prvCopyDataToQueue
                0x9d01d240      0x1c8 build/default/production/_ext/404212886/queue.o

.text.DRV_USBHS_Open
                0x9d01d408      0x1c4
 .text.DRV_USBHS_Open
                0x9d01d408      0x1c4 build/default/production/_ext/2071311437/drv_usbhs.o
                0x9d01d408                DRV_USBHS_Open

.text.f_opendir
                0x9d01d5cc      0x1c4
 .text.f_opendir
                0x9d01d5cc      0x1c4 build/default/production/_ext/411819097/ff.o
                0x9d01d5cc                f_opendir

.text.F_USB_DEVICE_CDC_ControlTransferHandler
                0x9d01d790      0x1c0
 .text.F_USB_DEVICE_CDC_ControlTransferHandler
                0x9d01d790      0x1c0 build/default/production/_ext/308758920/usb_device_cdc.o
                0x9d01d790                F_USB_DEVICE_CDC_ControlTransferHandler

.text.SYS_FS_CurrentDriveSet
                0x9d01d950      0x1bc
 .text.SYS_FS_CurrentDriveSet
                0x9d01d950      0x1bc build/default/production/_ext/1269487135/sys_fs.o
                0x9d01d950                SYS_FS_CurrentDriveSet

.text.SYS_TIME_TimerObjectCreate
                0x9d01db0c      0x1bc
 .text.SYS_TIME_TimerObjectCreate
                0x9d01db0c      0x1bc build/default/production/_ext/101884895/sys_time.o

.text.F_USB_DEVICE_GetStringDescriptorRequestProcess
                0x9d01dcc8      0x1bc
 .text.F_USB_DEVICE_GetStringDescriptorRequestProcess
                0x9d01dcc8      0x1bc build/default/production/_ext/308758920/usb_device.o
                0x9d01dcc8                F_USB_DEVICE_GetStringDescriptorRequestProcess

.text.USBHS_DeviceRxEndpointConfigure_Default
                0x9d01de84      0x1b4
 .text.USBHS_DeviceRxEndpointConfigure_Default
                0x9d01de84      0x1b4 build/default/production/_ext/2071311437/drv_usbhs_device.o

.text.remove_chain
                0x9d01e038      0x1b4
 .text.remove_chain
                0x9d01e038      0x1b4 build/default/production/_ext/411819097/ff.o

.text.lDRV_SDSPI_ProcessCSD
                0x9d01e1ec      0x1b0
 .text.lDRV_SDSPI_ProcessCSD
                0x9d01e1ec      0x1b0 build/default/production/_ext/1100529066/drv_sdspi.o

.text.find_volume
                0x9d01e39c      0x1ac
 .text.find_volume
                0x9d01e39c      0x1ac build/default/production/_ext/411819097/ff.o

.text.pick_lfn  0x9d01e548      0x1a4
 .text.pick_lfn
                0x9d01e548      0x1a4 build/default/production/_ext/411819097/ff.o

.text.lDRV_SDSPI_ReadResponseWithTimeout
                0x9d01e6ec      0x1a0
 .text.lDRV_SDSPI_ReadResponseWithTimeout
                0x9d01e6ec      0x1a0 build/default/production/_ext/1100529066/drv_sdspi.o

.text.lDRV_SDSPI_Read
                0x9d01e88c      0x1a0
 .text.lDRV_SDSPI_Read
                0x9d01e88c      0x1a0 build/default/production/_ext/1100529066/drv_sdspi.o

.text.DRV_SPI_ExclusiveUse
                0x9d01ea2c      0x1a0
 .text.DRV_SPI_ExclusiveUse
                0x9d01ea2c      0x1a0 build/default/production/_ext/2070931557/drv_spi.o

.text.SYS_FS_MEDIA_MANAGER_Register
                0x9d01ebcc      0x198
 .text.SYS_FS_MEDIA_MANAGER_Register
                0x9d01ebcc      0x198 build/default/production/_ext/1269487135/sys_fs_media_manager.o
                0x9d01ebcc                SYS_FS_MEDIA_MANAGER_Register

.text.vTaskSwitchContext
                0x9d01ed64      0x198
 .text.vTaskSwitchContext
                0x9d01ed64      0x198 build/default/production/_ext/404212886/FreeRTOS_tasks.o
                0x9d01ed64                vTaskSwitchContext

.text.prvAddCurrentTaskToDelayedList
                0x9d01eefc      0x198
 .text.prvAddCurrentTaskToDelayedList
                0x9d01eefc      0x198 build/default/production/_ext/404212886/FreeRTOS_tasks.o

.text.sync_fs   0x9d01f094      0x194
 .text.sync_fs  0x9d01f094      0x194 build/default/production/_ext/411819097/ff.o

.text.SYS_FS_MEDIA_MANAGER_SectorRead
                0x9d01f228      0x194
 .text.SYS_FS_MEDIA_MANAGER_SectorRead
                0x9d01f228      0x194 build/default/production/_ext/1269487135/sys_fs_media_manager.o
                0x9d01f228                SYS_FS_MEDIA_MANAGER_SectorRead

.text.SYS_FS_FileWrite
                0x9d01f3bc      0x18c
 .text.SYS_FS_FileWrite
                0x9d01f3bc      0x18c build/default/production/_ext/1269487135/sys_fs.o
                0x9d01f3bc                SYS_FS_FileWrite

.text.SPI4_TransferSetup
                0x9d01f548      0x188
 .text.SPI4_TransferSetup
                0x9d01f548      0x188 build/default/production/_ext/298189674/plib_spi4_master.o
                0x9d01f548                SPI4_TransferSetup

.text.DMA0_InterruptHandler
                0x9d01f6d0      0x188
 .text.DMA0_InterruptHandler
                0x9d01f6d0      0x188 build/default/production/_ext/1865161661/plib_dmac.o
                0x9d01f6d0                DMA0_InterruptHandler

.text.DMA1_InterruptHandler
                0x9d01f858      0x188
 .text.DMA1_InterruptHandler
                0x9d01f858      0x188 build/default/production/_ext/1865161661/plib_dmac.o
                0x9d01f858                DMA1_InterruptHandler

.text.USBHS_DMAOperationEnable_Default
                0x9d01f9e0      0x184
 .text.USBHS_DMAOperationEnable_Default
                0x9d01f9e0      0x184 build/default/production/_ext/2071311437/drv_usbhs_device.o

.text.F_DRV_USBHS_DEVICE_FIFOFree
                0x9d01fb64      0x184
 .text.F_DRV_USBHS_DEVICE_FIFOFree
                0x9d01fb64      0x184 build/default/production/_ext/2071311437/drv_usbhs_device.o
                0x9d01fb64                F_DRV_USBHS_DEVICE_FIFOFree

.text.SYS_FS_FileRead
                0x9d01fce8      0x184
 .text.SYS_FS_FileRead
                0x9d01fce8      0x184 build/default/production/_ext/1269487135/sys_fs.o
                0x9d01fce8                SYS_FS_FileRead

.text.chk_share
                0x9d01fe6c      0x180
 .text.chk_share
                0x9d01fe6c      0x180 build/default/production/_ext/411819097/ff.o

.text.put_lfn   0x9d01ffec      0x180
 .text.put_lfn  0x9d01ffec      0x180 build/default/production/_ext/411819097/ff.o

.text.SYS_FS_FileClose
                0x9d02016c      0x180
 .text.SYS_FS_FileClose
                0x9d02016c      0x180 build/default/production/_ext/1269487135/sys_fs.o
                0x9d02016c                SYS_FS_FileClose

.text.lDRV_SDSPI_WriteBlock
                0x9d0202ec      0x170
 .text.lDRV_SDSPI_WriteBlock
                0x9d0202ec      0x170 build/default/production/_ext/1100529066/drv_sdspi.o

.text.SYS_FS_DirectoryMake
                0x9d02045c      0x170
 .text.SYS_FS_DirectoryMake
                0x9d02045c      0x170 build/default/production/_ext/1269487135/sys_fs.o
                0x9d02045c                SYS_FS_DirectoryMake

.text.SYS_Initialize
                0x9d0205cc      0x170
 .text.SYS_Initialize
                0x9d0205cc      0x170 build/default/production/_ext/1171490990/initialization.o
                0x9d0205cc                SYS_Initialize

.text.OSAL_SEM_Create
                0x9d02073c      0x16c
 .text.OSAL_SEM_Create
                0x9d02073c      0x16c build/default/production/_ext/1529399856/osal_freertos.o
                0x9d02073c                OSAL_SEM_Create

.text.USBHS_DeviceTxEndpointConfigure_Default
                0x9d0208a8      0x168
 .text.USBHS_DeviceTxEndpointConfigure_Default
                0x9d0208a8      0x168 build/default/production/_ext/2071311437/drv_usbhs_device.o

.text           0x9d020a10      0x2d0
 .text          0x9d020a10      0x168 c:/program files/microchip/xc32/v2.50/bin/bin/../../lib/gcc/pic32mx/4.8.3/../../../../pic32mx/lib/fpu64\libpic32.a(memcpy.o)
                0x9d020a10                memcpy
 .text          0x9d020b78      0x168 c:/program files/microchip/xc32/v2.50/bin/bin/../../lib/gcc/pic32mx/4.8.3/../../../../pic32mx/lib/fpu64\libpic32.a(strlen.o)
                0x9d020b78                strlen

.text.FATFS_opendir
                0x9d020ce0      0x164
 .text.FATFS_opendir
                0x9d020ce0      0x164 build/default/production/_ext/1269487135/sys_fs_fat_interface.o
                0x9d020ce0                FATFS_opendir

.text.F_USB_DEVICE_ConfigureDevice
                0x9d020e44      0x164
 .text.F_USB_DEVICE_ConfigureDevice
                0x9d020e44      0x164 build/default/production/_ext/308758920/usb_device.o
                0x9d020e44                F_USB_DEVICE_ConfigureDevice

.text.lDRV_SPI_DriverHandleValidate
                0x9d020fa8      0x15c
 .text.lDRV_SPI_DriverHandleValidate
                0x9d020fa8      0x15c build/default/production/_ext/2070931557/drv_spi.o

.text.xTaskCheckForTimeOut
                0x9d021104      0x15c
 .text.xTaskCheckForTimeOut
                0x9d021104      0x15c build/default/production/_ext/404212886/FreeRTOS_tasks.o
                0x9d021104                xTaskCheckForTimeOut

.text.SYS_FS_MEDIA_MANAGER_MediaStatusGet
                0x9d021260      0x158
 .text.SYS_FS_MEDIA_MANAGER_MediaStatusGet
                0x9d021260      0x158 build/default/production/_ext/1269487135/sys_fs_media_manager.o
                0x9d021260                SYS_FS_MEDIA_MANAGER_MediaStatusGet

.text.prvInsertBlockIntoFreeList
                0x9d0213b8      0x158
 .text.prvInsertBlockIntoFreeList
                0x9d0213b8      0x158 build/default/production/_ext/1665200909/heap_4.o

.text.lDRV_SDSPI_SendACMD41
                0x9d021510      0x154
 .text.lDRV_SDSPI_SendACMD41
                0x9d021510      0x154 build/default/production/_ext/1100529066/drv_sdspi.o

.text.SYS_FS_FileEOF
                0x9d021664      0x14c
 .text.SYS_FS_FileEOF
                0x9d021664      0x14c build/default/production/_ext/1269487135/sys_fs.o
                0x9d021664                SYS_FS_FileEOF

.text.SYS_TIME_UpdateTime
                0x9d0217b0      0x14c
 .text.SYS_TIME_UpdateTime
                0x9d0217b0      0x14c build/default/production/_ext/101884895/sys_time.o

.text.F_USB_DEVICE_Ep0TransmitCompleteCallback
                0x9d0218fc      0x14c
 .text.F_USB_DEVICE_Ep0TransmitCompleteCallback
                0x9d0218fc      0x14c build/default/production/_ext/308758920/usb_device.o
                0x9d0218fc                F_USB_DEVICE_Ep0TransmitCompleteCallback

.text.lDRV_SDSPI_MediaCommandDetect
                0x9d021a48      0x148
 .text.lDRV_SDSPI_MediaCommandDetect
                0x9d021a48      0x148 build/default/production/_ext/1100529066/drv_sdspi.o

.text.SYS_TIME_PLIBCallback
                0x9d021b90      0x148
 .text.SYS_TIME_PLIBCallback
                0x9d021b90      0x148 build/default/production/_ext/101884895/sys_time.o

.text.DRV_USBHS_Tasks_ISR
                0x9d021cd8      0x144
 .text.DRV_USBHS_Tasks_ISR
                0x9d021cd8      0x144 build/default/production/_ext/2071311437/drv_usbhs.o
                0x9d021cd8                DRV_USBHS_Tasks_ISR

.text.F_USB_DEVICE_CDC_Deinitialization
                0x9d021e1c      0x144
 .text.F_USB_DEVICE_CDC_Deinitialization
                0x9d021e1c      0x144 build/default/production/_ext/308758920/usb_device_cdc.o
                0x9d021e1c                F_USB_DEVICE_CDC_Deinitialization

.text.prvUnlockQueue
                0x9d021f60      0x144
 .text.prvUnlockQueue
                0x9d021f60      0x144 build/default/production/_ext/404212886/queue.o

.rodata.gDrvSDSPICmdTable.gDrvSDSPICmdTable
                0x9d0220a4      0x140
 .rodata.gDrvSDSPICmdTable.gDrvSDSPICmdTable
                0x9d0220a4      0x140 build/default/production/_ext/1100529066/drv_sdspi.o

.text.DRV_USBHS_ClientEventCallBackSet
                0x9d0221e4      0x13c
 .text.DRV_USBHS_ClientEventCallBackSet
                0x9d0221e4      0x13c build/default/production/_ext/2071311437/drv_usbhs.o
                0x9d0221e4                DRV_USBHS_ClientEventCallBackSet

.text.f_mount   0x9d022320      0x13c
 .text.f_mount  0x9d022320      0x13c build/default/production/_ext/411819097/ff.o
                0x9d022320                f_mount

.text.f_chmod   0x9d02245c      0x138
 .text.f_chmod  0x9d02245c      0x138 build/default/production/_ext/411819097/ff.o
                0x9d02245c                f_chmod

.text.SYS_TIME_TimerAdd
                0x9d022594      0x138
 .text.SYS_TIME_TimerAdd
                0x9d022594      0x138 build/default/production/_ext/101884895/sys_time.o

.text.dir_remove
                0x9d0226cc      0x134
 .text.dir_remove
                0x9d0226cc      0x134 build/default/production/_ext/411819097/ff.o

.text.F_USB_DEVICE_CDC_ReadIRPCallback
                0x9d022800      0x134
 .text.F_USB_DEVICE_CDC_ReadIRPCallback
                0x9d022800      0x134 build/default/production/_ext/308758920/usb_device_cdc.o
                0x9d022800                F_USB_DEVICE_CDC_ReadIRPCallback

.text.F_USB_DEVICE_CDC_WriteIRPCallback
                0x9d022934      0x134
 .text.F_USB_DEVICE_CDC_WriteIRPCallback
                0x9d022934      0x134 build/default/production/_ext/308758920/usb_device_cdc.o
                0x9d022934                F_USB_DEVICE_CDC_WriteIRPCallback

.text.DRV_USBHS_DEVICE_TestModeEnter
                0x9d022a68      0x130
 .text.DRV_USBHS_DEVICE_TestModeEnter
                0x9d022a68      0x130 build/default/production/_ext/2071311437/drv_usbhs_device.o
                0x9d022a68                DRV_USBHS_DEVICE_TestModeEnter

.text.F_USB_DEVICE_ForwardControlXfrToFunction
                0x9d022b98      0x130
 .text.F_USB_DEVICE_ForwardControlXfrToFunction
                0x9d022b98      0x130 build/default/production/_ext/308758920/usb_device.o
                0x9d022b98                F_USB_DEVICE_ForwardControlXfrToFunction

.text.USBHS_TestModeEnter_Default
                0x9d022cc8      0x12c
 .text.USBHS_TestModeEnter_Default
                0x9d022cc8      0x12c build/default/production/_ext/2071311437/drv_usbhs_device.o

.text.lDRV_SDSPI_DriverHandleValidate
                0x9d022df4      0x128
 .text.lDRV_SDSPI_DriverHandleValidate
                0x9d022df4      0x128 build/default/production/_ext/1100529066/drv_sdspi.o

.text.dir_clear
                0x9d022f1c      0x128
 .text.dir_clear
                0x9d022f1c      0x128 build/default/production/_ext/411819097/ff.o

.text.dir_alloc
                0x9d023044      0x128
 .text.dir_alloc
                0x9d023044      0x128 build/default/production/_ext/411819097/ff.o

.text.get_ldnumber
                0x9d02316c      0x128
 .text.get_ldnumber
                0x9d02316c      0x128 build/default/production/_ext/411819097/ff.o

.text.SYS_TIME_RemoveFromList
                0x9d023294      0x128
 .text.SYS_TIME_RemoveFromList
                0x9d023294      0x128 build/default/production/_ext/101884895/sys_time.o

.text.xTaskCreate
                0x9d0233bc      0x128
 .text.xTaskCreate
                0x9d0233bc      0x128 build/default/production/_ext/404212886/FreeRTOS_tasks.o
                0x9d0233bc                xTaskCreate

.text.xQueueGenericCreate
                0x9d0234e4      0x128
 .text.xQueueGenericCreate
                0x9d0234e4      0x128 build/default/production/_ext/404212886/queue.o
                0x9d0234e4                xQueueGenericCreate

.text.SYS_TIME_ClientNotify
                0x9d02360c      0x124
 .text.SYS_TIME_ClientNotify
                0x9d02360c      0x124 build/default/production/_ext/101884895/sys_time.o

.text.pxPortInitialiseStack
                0x9d023730      0x124
 .text.pxPortInitialiseStack
                0x9d023730      0x124 build/default/production/_ext/951553246/port.o
                0x9d023730                pxPortInitialiseStack

.text           0x9d023854      0x120
 .text          0x9d023854      0x120 c:/program files/microchip/xc32/v2.50/bin/bin/../../lib/gcc/pic32mx/4.8.3/../../../../pic32mx/lib/fpu64\libpic32.a(strcmp.o)
                0x9d023854                strcmp

.text.DRV_USBHS_Tasks_ISR_USBDMA
                0x9d023974      0x11c
 .text.DRV_USBHS_Tasks_ISR_USBDMA
                0x9d023974      0x11c build/default/production/_ext/2071311437/drv_usbhs.o
                0x9d023974                DRV_USBHS_Tasks_ISR_USBDMA

.text.F_USB_DEVICE_GetFunctionDriverEntryByInterface
                0x9d023a90      0x11c
 .text.F_USB_DEVICE_GetFunctionDriverEntryByInterface
                0x9d023a90      0x11c build/default/production/_ext/308758920/usb_device.o
                0x9d023a90                F_USB_DEVICE_GetFunctionDriverEntryByInterface

.text.F_USB_DEVICE_DeInitializeAllFunctionDrivers
                0x9d023bac      0x118
 .text.F_USB_DEVICE_DeInitializeAllFunctionDrivers
                0x9d023bac      0x118 build/default/production/_ext/308758920/usb_device.o
                0x9d023bac                F_USB_DEVICE_DeInitializeAllFunctionDrivers

.text.tchar2uni
                0x9d023cc4      0x114
 .text.tchar2uni
                0x9d023cc4      0x114 build/default/production/_ext/411819097/ff.o

.text.vPortFree
                0x9d023dd8      0x114
 .text.vPortFree
                0x9d023dd8      0x114 build/default/production/_ext/1665200909/heap_4.o
                0x9d023dd8                vPortFree

.text.prvHeapInit
                0x9d023eec      0x114
 .text.prvHeapInit
                0x9d023eec      0x114 build/default/production/_ext/1665200909/heap_4.o

.text.SYS_TIME_TimerStart
                0x9d024000      0x110
 .text.SYS_TIME_TimerStart
                0x9d024000      0x110 build/default/production/_ext/101884895/sys_time.o
                0x9d024000                SYS_TIME_TimerStart

.text.SYS_Tasks
                0x9d024110      0x110
 .text.SYS_Tasks
                0x9d024110      0x110 build/default/production/_ext/1171490990/tasks.o
                0x9d024110                SYS_Tasks

.text.f_chdir   0x9d024220      0x10c
 .text.f_chdir  0x9d024220      0x10c build/default/production/_ext/411819097/ff.o
                0x9d024220                f_chdir

.text.f_utime   0x9d02432c      0x10c
 .text.f_utime  0x9d02432c      0x10c build/default/production/_ext/411819097/ff.o
                0x9d02432c                f_utime

.text.SYS_FS_MEDIA_MANAGER_VolumePropertyGet
                0x9d024438      0x10c
 .text.SYS_FS_MEDIA_MANAGER_VolumePropertyGet
                0x9d024438      0x10c build/default/production/_ext/1269487135/sys_fs_media_manager.o
                0x9d024438                SYS_FS_MEDIA_MANAGER_VolumePropertyGet

.text.f_gets    0x9d024544      0x108
 .text.f_gets   0x9d024544      0x108 build/default/production/_ext/411819097/ff.o
                0x9d024544                f_gets

.text.F_USB_DEVICE_FindEndpoint
                0x9d02464c      0x108
 .text.F_USB_DEVICE_FindEndpoint
                0x9d02464c      0x108 build/default/production/_ext/308758920/usb_device.o
                0x9d02464c                F_USB_DEVICE_FindEndpoint

.text.sync_window
                0x9d024754      0x104
 .text.sync_window
                0x9d024754      0x104 build/default/production/_ext/411819097/ff.o

.text.USB_DEVICE_Open
                0x9d024858      0x104
 .text.USB_DEVICE_Open
                0x9d024858      0x104 build/default/production/_ext/308758920/usb_device.o
                0x9d024858                USB_DEVICE_Open

.rodata.uc437.uc437
                0x9d02495c      0x100
 .rodata.uc437.uc437
                0x9d02495c      0x100 build/default/production/_ext/411819097/ffunicode.o

.text.disk_ioctl
                0x9d024a5c      0x100
 .text.disk_ioctl
                0x9d024a5c      0x100 build/default/production/_ext/565198302/diskio.o
                0x9d024a5c                disk_ioctl

.text.USB_DEVICE_ControlSend
                0x9d024b5c      0x100
 .text.USB_DEVICE_ControlSend
                0x9d024b5c      0x100 build/default/production/_ext/308758920/usb_device.o
                0x9d024b5c                USB_DEVICE_ControlSend

.text.vTaskStartScheduler
                0x9d024c5c       0xfc
 .text.vTaskStartScheduler
                0x9d024c5c       0xfc build/default/production/_ext/404212886/FreeRTOS_tasks.o
                0x9d024c5c                vTaskStartScheduler

.text.put_utf   0x9d024d58       0xf8
 .text.put_utf  0x9d024d58       0xf8 build/default/production/_ext/411819097/ff.o

.text.lDRV_SDSPI_ReadCSD
                0x9d024e50       0xf4
 .text.lDRV_SDSPI_ReadCSD
                0x9d024e50       0xf4 build/default/production/_ext/1100529066/drv_sdspi.o

.text.disk_read_aligned
                0x9d024f44       0xf4
 .text.disk_read_aligned
                0x9d024f44       0xf4 build/default/production/_ext/565198302/diskio.o

.text.strchr    0x9d025038       0xf4
 .text.strchr   0x9d025038       0xf4 c:/program files/microchip/xc32/v2.50/bin/bin/../../lib/gcc/pic32mx/4.8.3/../../../../pic32mx/lib/fpu64\liblega-c.a(strchr.o)
                0x9d025038                strchr

.text.f_readdir
                0x9d000010       0xf0
 .text.f_readdir
                0x9d000010       0xf0 build/default/production/_ext/411819097/ff.o
                0x9d000010                f_readdir

.text.putc_bfd  0x9d02512c       0xec
 .text.putc_bfd
                0x9d02512c       0xec build/default/production/_ext/411819097/ff.o

.text.vListInsert
                0x9d025218       0xec
 .text.vListInsert
                0x9d025218       0xec build/default/production/_ext/404212886/list.o
                0x9d025218                vListInsert

.text.F_DRV_USBHS_DEVICE_Get_FreeDMAChannel
                0x9d025304       0xe8
 .text.F_DRV_USBHS_DEVICE_Get_FreeDMAChannel
                0x9d025304       0xe8 build/default/production/_ext/2071311437/drv_usbhs_device.o
                0x9d025304                F_DRV_USBHS_DEVICE_Get_FreeDMAChannel

.text.disk_checkCommandStatus
                0x9d0253ec       0xe8
 .text.disk_checkCommandStatus
                0x9d0253ec       0xe8 build/default/production/_ext/565198302/diskio.o

.text.DMAC_Initialize
                0x9d0254d4       0xe8
 .text.DMAC_Initialize
                0x9d0254d4       0xe8 build/default/production/_ext/1865161661/plib_dmac.o
                0x9d0254d4                DMAC_Initialize

.text.ff_uni2oem
                0x9d0255bc       0xe4
 .text.ff_uni2oem
                0x9d0255bc       0xe4 build/default/production/_ext/411819097/ffunicode.o
                0x9d0255bc                ff_uni2oem

.text.USB_DEVICE_ControlStatus
                0x9d0256a0       0xe4
 .text.USB_DEVICE_ControlStatus
                0x9d0256a0       0xe4 build/default/production/_ext/308758920/usb_device.o
                0x9d0256a0                USB_DEVICE_ControlStatus

.text.dec_share
                0x9d025784       0xe0
 .text.dec_share
                0x9d025784       0xe0 build/default/production/_ext/411819097/ff.o

.text.prvInitialiseTaskLists
                0x9d025864       0xe0
 .text.prvInitialiseTaskLists
                0x9d025864       0xe0 build/default/production/_ext/404212886/FreeRTOS_tasks.o

.text.strncmp   0x9d025944       0xe0
 .text.strncmp  0x9d025944       0xe0 c:/program files/microchip/xc32/v2.50/bin/bin/../../lib/gcc/pic32mx/4.8.3/../../../../pic32mx/lib/fpu64\liblega-c.a(strncmp.o)
                0x9d025944                strncmp

.text.lDRV_SDSPI_CheckIFCondition
                0x9d025a24       0xdc
 .text.lDRV_SDSPI_CheckIFCondition
                0x9d025a24       0xdc build/default/production/_ext/1100529066/drv_sdspi.o

.text.DRV_USBHS_DEVICE_EndpointIsEnabled
                0x9d025b00       0xdc
 .text.DRV_USBHS_DEVICE_EndpointIsEnabled
                0x9d025b00       0xdc build/default/production/_ext/2071311437/drv_usbhs_device.o
                0x9d025b00                DRV_USBHS_DEVICE_EndpointIsEnabled

.text.DRV_USBHS_DEVICE_EndpointIsStalled
                0x9d025bdc       0xdc
 .text.DRV_USBHS_DEVICE_EndpointIsStalled
                0x9d025bdc       0xdc build/default/production/_ext/2071311437/drv_usbhs_device.o
                0x9d025bdc                DRV_USBHS_DEVICE_EndpointIsStalled

.text.general_exception
                0x9d025cb8       0xdc
 .text.general_exception
                0x9d025cb8       0xdc c:/program files/microchip/xc32/v2.50/bin/bin/../../lib/gcc/pic32mx/4.8.3/../../../../pic32mx/lib/fpu64\libpic32.a(general-exception.o)
                0x9d025cb8                _general_exception_context

.text.CLK_Initialize
                0x9d025d94       0xd8
 .text.CLK_Initialize
                0x9d025d94       0xd8 build/default/production/_ext/60165520/plib_clk.o
                0x9d025d94                CLK_Initialize

.text.SPI4_Initialize
                0x9d025e6c       0xd8
 .text.SPI4_Initialize
                0x9d025e6c       0xd8 build/default/production/_ext/298189674/plib_spi4_master.o
                0x9d025e6c                SPI4_Initialize

.text.validate  0x9d025f44       0xd8
 .text.validate
                0x9d025f44       0xd8 build/default/production/_ext/411819097/ff.o

.text._cache_err_exception_context
                0x9d02601c       0xd8
 .text._cache_err_exception_context
                0x9d02601c       0xd8 c:/program files/microchip/xc32/v2.50/bin/bin/../../lib/gcc/pic32mx/4.8.3/../../../../pic32mx/lib/fpu64\libpic32.a(cache-err-exception.o)
                0x9d02601c                _cache_err_exception_context

.text.simple_tlb_refill_context
                0x9d0260f4       0xd8
 .text.simple_tlb_refill_context
                0x9d0260f4       0xd8 c:/program files/microchip/xc32/v2.50/bin/bin/../../lib/gcc/pic32mx/4.8.3/../../../../pic32mx/lib/fpu64\libpic32.a(simple-tlb-refill-exception.o)
                0x9d0260f4                _simple_tlb_refill_exception_context

.text.lDRV_SDSPI_ReadCID
                0x9d0261cc       0xd4
 .text.lDRV_SDSPI_ReadCID
                0x9d0261cc       0xd4 build/default/production/_ext/1100529066/drv_sdspi.o

.text.SYS_TIME_UpdateTimerList
                0x9d0262a0       0xd4
 .text.SYS_TIME_UpdateTimerList
                0x9d0262a0       0xd4 build/default/production/_ext/101884895/sys_time.o

.text.APP_FREERTOS_Tasks
                0x9d026374       0xd4
 .text.APP_FREERTOS_Tasks
                0x9d026374       0xd4 build/default/production/_ext/1360937237/app_freertos.o
                0x9d026374                APP_FREERTOS_Tasks

.text.lDRV_SDSPI_ReadOCR
                0x9d026448       0xd0
 .text.lDRV_SDSPI_ReadOCR
                0x9d026448       0xd0 build/default/production/_ext/1100529066/drv_sdspi.o

.text.USBHS_DeviceEPFIFOUnload_Default
                0x9d026518       0xd0
 .text.USBHS_DeviceEPFIFOUnload_Default
                0x9d026518       0xd0 build/default/production/_ext/2071311437/drv_usbhs_device.o

.text.FATFS_getclusters
                0x9d0265e8       0xd0
 .text.FATFS_getclusters
                0x9d0265e8       0xd0 build/default/production/_ext/1269487135/sys_fs_fat_interface.o
                0x9d0265e8                FATFS_getclusters

.text.lDRV_SDSPI_UpdateGeometry
                0x9d0266b8       0xcc
 .text.lDRV_SDSPI_UpdateGeometry
                0x9d0266b8       0xcc build/default/production/_ext/1100529066/drv_sdspi.o

.text.DRV_SDSPI_Close
                0x9d026784       0xcc
 .text.DRV_SDSPI_Close
                0x9d026784       0xcc build/default/production/_ext/1100529066/drv_sdspi.o
                0x9d026784                DRV_SDSPI_Close

.text.SYS_FS_MEDIA_MANAGER_EventHandler
                0x9d026850       0xcc
 .text.SYS_FS_MEDIA_MANAGER_EventHandler
                0x9d026850       0xcc build/default/production/_ext/1269487135/sys_fs_media_manager.o

.text.APP_FREERTOS_Initialize
                0x9d02691c       0xcc
 .text.APP_FREERTOS_Initialize
                0x9d02691c       0xcc build/default/production/_ext/1360937237/app_freertos.o
                0x9d02691c                APP_FREERTOS_Initialize

.text.f_fdisk   0x9d0269e8       0xc8
 .text.f_fdisk  0x9d0269e8       0xc8 build/default/production/_ext/411819097/ff.o
                0x9d0269e8                f_fdisk

.text.SYS_FS_MEDIA_MANAGER_TransferTask
                0x9d026ab0       0xc8
 .text.SYS_FS_MEDIA_MANAGER_TransferTask
                0x9d026ab0       0xc8 build/default/production/_ext/1269487135/sys_fs_media_manager.o
                0x9d026ab0                SYS_FS_MEDIA_MANAGER_TransferTask

.text.f_stat    0x9d026b78       0xc4
 .text.f_stat   0x9d026b78       0xc4 build/default/production/_ext/411819097/ff.o
                0x9d026b78                f_stat

.text.SYS_TIME_TimerDestroy
                0x9d026c3c       0xc4
 .text.SYS_TIME_TimerDestroy
                0x9d026c3c       0xc4 build/default/production/_ext/101884895/sys_time.o
                0x9d026c3c                SYS_TIME_TimerDestroy

.text.F_DRV_USBHS_DEVICE_AttachStateMachine
                0x9d026d00       0xc0
 .text.F_DRV_USBHS_DEVICE_AttachStateMachine
                0x9d026d00       0xc0 build/default/production/_ext/2071311437/drv_usbhs_device.o
                0x9d026d00                F_DRV_USBHS_DEVICE_AttachStateMachine

.text.SYS_TIME_CallbackRegisterMS
                0x9d026dc0       0xc0
 .text.SYS_TIME_CallbackRegisterMS
                0x9d026dc0       0xc0 build/default/production/_ext/101884895/sys_time.o
                0x9d026dc0                SYS_TIME_CallbackRegisterMS

.rodata.cvt2.30279.cvt2
                0x9d026e80       0xbc
 .rodata.cvt2.30279.cvt2
                0x9d026e80       0xbc build/default/production/_ext/411819097/ffunicode.o

.text.SYS_TIME_Initialize
                0x9d026f3c       0xbc
 .text.SYS_TIME_Initialize
                0x9d026f3c       0xbc build/default/production/_ext/101884895/sys_time.o
                0x9d026f3c                SYS_TIME_Initialize

.text.vTaskEnterCritical
                0x9d026ff8       0xbc
 .text.vTaskEnterCritical
                0x9d026ff8       0xbc build/default/production/_ext/404212886/FreeRTOS_tasks.o
                0x9d026ff8                vTaskEnterCritical

.tlb.__pic32_tlb_init_ebi_sqi
                0x9d0270b4       0xbc
 .tlb.__pic32_tlb_init_ebi_sqi
                0x9d0270b4       0xbc c:/program files/microchip/xc32/v2.50/bin/bin/../../lib/gcc/pic32mx/4.8.3/../../../../pic32mx/lib/fpu64\libpic32.a(pic32_init_tlb_ebi_sqi.o)
                0x9d0270b4                __pic32_tlb_init_ebi_sqi

.text.lDRV_SPI_PlibCallbackHandler
                0x9d027170       0xb4
 .text.lDRV_SPI_PlibCallbackHandler
                0x9d027170       0xb4 build/default/production/_ext/2070931557/drv_spi.o

.text.move_window
                0x9d027224       0xb4
 .text.move_window
                0x9d027224       0xb4 build/default/production/_ext/411819097/ff.o

.text.DRV_SPI_TransferSetup
                0x9d0272d8       0xb0
 .text.DRV_SPI_TransferSetup
                0x9d0272d8       0xb0 build/default/production/_ext/2070931557/drv_spi.o
                0x9d0272d8                DRV_SPI_TransferSetup

.text.SYS_FS_MEDIA_T_MANAGER_HandleMediaDetach
                0x9d027388       0xb0
 .text.SYS_FS_MEDIA_T_MANAGER_HandleMediaDetach
                0x9d027388       0xb0 build/default/production/_ext/1269487135/sys_fs_media_manager.o

.text.SYS_TIME_GetTimerObject
                0x9d027438       0xb0
 .text.SYS_TIME_GetTimerObject
                0x9d027438       0xb0 build/default/production/_ext/101884895/sys_time.o

.text.xQueueCreateCountingSemaphore
                0x9d0274e8       0xb0
 .text.xQueueCreateCountingSemaphore
                0x9d0274e8       0xb0 build/default/production/_ext/404212886/queue.o
                0x9d0274e8                xQueueCreateCountingSemaphore

.text.st_dword  0x9d027598       0xac
 .text.st_dword
                0x9d027598       0xac build/default/production/_ext/411819097/ff.o

.text.vTaskDelay
                0x9d027644       0xac
 .text.vTaskDelay
                0x9d027644       0xac build/default/production/_ext/404212886/FreeRTOS_tasks.o
                0x9d027644                vTaskDelay

.text.prvCopyDataFromQueue
                0x9d0276f0       0xac
 .text.prvCopyDataFromQueue
                0x9d0276f0       0xac build/default/production/_ext/404212886/queue.o

.text.DRV_USBHS_DEVICE_CurrentSpeedGet
                0x9d02779c       0xa8
 .text.DRV_USBHS_DEVICE_CurrentSpeedGet
                0x9d02779c       0xa8 build/default/production/_ext/2071311437/drv_usbhs_device.o
                0x9d02779c                DRV_USBHS_DEVICE_CurrentSpeedGet

.text.ff_oem2uni
                0x9d027844       0xa8
 .text.ff_oem2uni
                0x9d027844       0xa8 build/default/production/_ext/411819097/ffunicode.o
                0x9d027844                ff_oem2uni

.text.F_USB_DEVICE_RedirectControlXfrToClient
                0x9d0278ec       0xa8
 .text.F_USB_DEVICE_RedirectControlXfrToClient
                0x9d0278ec       0xa8 build/default/production/_ext/308758920/usb_device.o
                0x9d0278ec                F_USB_DEVICE_RedirectControlXfrToClient

.text.USB_DEVICE_CDC_EventHandlerSet
                0x9d027994       0xa8
 .text.USB_DEVICE_CDC_EventHandlerSet
                0x9d027994       0xa8 build/default/production/_ext/308758920/usb_device_cdc.o
                0x9d027994                USB_DEVICE_CDC_EventHandlerSet

.text           0x9d027a3c       0xa8
 .text          0x9d027a3c       0xa8 c:/program files/microchip/xc32/v2.50/bin/bin/../../lib/gcc/pic32mx/4.8.3/../../../../pic32mx/lib/fpu64\libpic32.a(memset.o)
                0x9d027a3c                memset

.text.F_DRV_USBHS_DEVICE_IRPQueueFlush
                0x9d027ae4       0xa4
 .text.F_DRV_USBHS_DEVICE_IRPQueueFlush
                0x9d027ae4       0xa4 build/default/production/_ext/2071311437/drv_usbhs_device.o
                0x9d027ae4                F_DRV_USBHS_DEVICE_IRPQueueFlush

.text.SYS_FS_MEDIA_MANAGER_IsFSFat
                0x9d027b88       0xa4
 .text.SYS_FS_MEDIA_MANAGER_IsFSFat
                0x9d027b88       0xa4 build/default/production/_ext/1269487135/sys_fs_media_manager.o

.text.SYS_TIME_ResourceLock
                0x9d027c2c       0xa4
 .text.SYS_TIME_ResourceLock
                0x9d027c2c       0xa4 build/default/production/_ext/101884895/sys_time.o

.text.USB_DEVICE_EndpointEnable
                0x9d027cd0       0xa4
 .text.USB_DEVICE_EndpointEnable
                0x9d027cd0       0xa4 build/default/production/_ext/308758920/usb_device.o
                0x9d027cd0                USB_DEVICE_EndpointEnable

.text.F_DRV_USBHS_DEVICE_Initialize
                0x9d027d74       0xa0
 .text.F_DRV_USBHS_DEVICE_Initialize
                0x9d027d74       0xa0 build/default/production/_ext/2071311437/drv_usbhs_device.o
                0x9d027d74                F_DRV_USBHS_DEVICE_Initialize

.text.DRV_USBHS_DEVICE_Attach
                0x9d027e14       0xa0
 .text.DRV_USBHS_DEVICE_Attach
                0x9d027e14       0xa0 build/default/production/_ext/2071311437/drv_usbhs_device.o
                0x9d027e14                DRV_USBHS_DEVICE_Attach

.text.GPIO_Initialize
                0x9d027eb4       0xa0
 .text.GPIO_Initialize
                0x9d027eb4       0xa0 build/default/production/_ext/1865254177/plib_gpio.o
                0x9d027eb4                GPIO_Initialize

.text.f_close   0x9d027f54       0xa0
 .text.f_close  0x9d027f54       0xa0 build/default/production/_ext/411819097/ff.o
                0x9d027f54                f_close

.text.putc_flush
                0x9d027ff4       0xa0
 .text.putc_flush
                0x9d027ff4       0xa0 build/default/production/_ext/411819097/ff.o

.text.FATFS_readdir
                0x9d028094       0xa0
 .text.FATFS_readdir
                0x9d028094       0xa0 build/default/production/_ext/1269487135/sys_fs_fat_interface.o
                0x9d028094                FATFS_readdir

.text.uxListRemove
                0x9d028134       0xa0
 .text.uxListRemove
                0x9d028134       0xa0 build/default/production/_ext/404212886/list.o
                0x9d028134                uxListRemove

.text.diskEventHandler
                0x9d0281d4       0x9c
 .text.diskEventHandler
                0x9d0281d4       0x9c build/default/production/_ext/565198302/diskio.o
                0x9d0281d4                diskEventHandler

.text.USB_DEVICE_EventHandlerSet
                0x9d028270       0x9c
 .text.USB_DEVICE_EventHandlerSet
                0x9d028270       0x9c build/default/production/_ext/308758920/usb_device.o
                0x9d028270                USB_DEVICE_EventHandlerSet

.text.vApplicationSetupTickTimerInterrupt
                0x9d02830c       0x9c
 .text.vApplicationSetupTickTimerInterrupt
                0x9d02830c       0x9c build/default/production/_ext/951553246/port.o
                0x9d02830c                vApplicationSetupTickTimerInterrupt

.text.DRV_SDSPI_SPIWriteWithChipSelectDisabled
                0x9d0283a8       0x98
 .text.DRV_SDSPI_SPIWriteWithChipSelectDisabled
                0x9d0283a8       0x98 build/default/production/_ext/1100529066/drv_sdspi_driver_interface.o
                0x9d0283a8                DRV_SDSPI_SPIWriteWithChipSelectDisabled

.text.DRV_SDSPI_CommandStatusGet
                0x9d028440       0x98
 .text.DRV_SDSPI_CommandStatusGet
                0x9d028440       0x98 build/default/production/_ext/1100529066/drv_sdspi.o
                0x9d028440                DRV_SDSPI_CommandStatusGet

.text.USBHS_DeviceEPFIFOLoad_Default
                0x9d0284d8       0x98
 .text.USBHS_DeviceEPFIFOLoad_Default
                0x9d0284d8       0x98 build/default/production/_ext/2071311437/drv_usbhs_device.o

.text.USBHS_DMAErrorGet_Default
                0x9d028570       0x98
 .text.USBHS_DMAErrorGet_Default
                0x9d028570       0x98 build/default/production/_ext/2071311437/drv_usbhs_device.o

.text.DRV_USBHS_DEVICE_AddressSet
                0x9d028608       0x98
 .text.DRV_USBHS_DEVICE_AddressSet
                0x9d028608       0x98 build/default/production/_ext/2071311437/drv_usbhs_device.o
                0x9d028608                DRV_USBHS_DEVICE_AddressSet

.text.OSAL_SEM_Pend
                0x9d0286a0       0x98
 .text.OSAL_SEM_Pend
                0x9d0286a0       0x98 build/default/production/_ext/1529399856/osal_freertos.o
                0x9d0286a0                OSAL_SEM_Pend

.text.OSAL_MUTEX_Lock
                0x9d028738       0x98
 .text.OSAL_MUTEX_Lock
                0x9d028738       0x98 build/default/production/_ext/1529399856/osal_freertos.o
                0x9d028738                OSAL_MUTEX_Lock

.text.FATFS_mkfs
                0x9d0287d0       0x98
 .text.FATFS_mkfs
                0x9d0287d0       0x98 build/default/production/_ext/1269487135/sys_fs_fat_interface.o
                0x9d0287d0                FATFS_mkfs

.text.SYS_FS_MEDIA_MANAGER_GetMediaGeometry
                0x9d028868       0x98
 .text.SYS_FS_MEDIA_MANAGER_GetMediaGeometry
                0x9d028868       0x98 build/default/production/_ext/1269487135/sys_fs_media_manager.o
                0x9d028868                SYS_FS_MEDIA_MANAGER_GetMediaGeometry

.text.SYS_TIME_MSToCount
                0x9d028900       0x98
 .text.SYS_TIME_MSToCount
                0x9d028900       0x98 build/default/production/_ext/101884895/sys_time.o
                0x9d028900                SYS_TIME_MSToCount

.text.prvCheckTasksWaitingTermination
                0x9d028998       0x98
 .text.prvCheckTasksWaitingTermination
                0x9d028998       0x98 build/default/production/_ext/404212886/FreeRTOS_tasks.o

.text           0x9d028a30       0x98
 .text          0x9d028a30       0x98 c:/program files/microchip/xc32/v2.50/bin/bin/../../lib/gcc/pic32mx/4.8.3/../../../../pic32mx/lib/fpu64\libpic32.a(memcmp.o)
                0x9d028a30                memcmp

.text.lDRV_SDSPI_ReadBlock
                0x9d028ac8       0x94
 .text.lDRV_SDSPI_ReadBlock
                0x9d028ac8       0x94 build/default/production/_ext/1100529066/drv_sdspi.o

.text.USBHS_DeviceRxEndpointStallDisable_Default
                0x9d028b5c       0x94
 .text.USBHS_DeviceRxEndpointStallDisable_Default
                0x9d028b5c       0x94 build/default/production/_ext/2071311437/drv_usbhs_device.o

.text.USBHS_DeviceTxEndpointStallDisable_Default
                0x9d028bf0       0x94
 .text.USBHS_DeviceTxEndpointStallDisable_Default
                0x9d028bf0       0x94 build/default/production/_ext/2071311437/drv_usbhs_device.o

.text.f_closedir
                0x9d028c84       0x94
 .text.f_closedir
                0x9d028c84       0x94 build/default/production/_ext/411819097/ff.o
                0x9d028c84                f_closedir

.text.USB_DEVICE_IRPSubmit
                0x9d028d18       0x94
 .text.USB_DEVICE_IRPSubmit
                0x9d028d18       0x94 build/default/production/_ext/308758920/usb_device.o
                0x9d028d18                USB_DEVICE_IRPSubmit

.rodata         0x9d028dac       0x94
 .rodata        0x9d028dac       0x94 build/default/production/_ext/1360937237/app_freertos.o

.text.OSAL_SEM_PostISR
                0x9d028e40       0x90
 .text.OSAL_SEM_PostISR
                0x9d028e40       0x90 build/default/production/_ext/1529399856/osal_freertos.o
                0x9d028e40                OSAL_SEM_PostISR

.text.f_puts    0x9d028ed0       0x90
 .text.f_puts   0x9d028ed0       0x90 build/default/production/_ext/411819097/ff.o
                0x9d028ed0                f_puts

.text.prvInitialiseNewQueue
                0x9d028f60       0x90
 .text.prvInitialiseNewQueue
                0x9d028f60       0x90 build/default/production/_ext/404212886/queue.o

.text.DRV_SDSPI_CardDetectPollingTimerStart
                0x9d028ff0       0x8c
 .text.DRV_SDSPI_CardDetectPollingTimerStart
                0x9d028ff0       0x8c build/default/production/_ext/1100529066/drv_sdspi_driver_interface.o
                0x9d028ff0                DRV_SDSPI_CardDetectPollingTimerStart

.text.DRV_SDSPI_CmdResponseTimerStart
                0x9d02907c       0x8c
 .text.DRV_SDSPI_CmdResponseTimerStart
                0x9d02907c       0x8c build/default/production/_ext/1100529066/drv_sdspi_driver_interface.o
                0x9d02907c                DRV_SDSPI_CmdResponseTimerStart

.text.DRV_SDSPI_TimerStart
                0x9d029108       0x8c
 .text.DRV_SDSPI_TimerStart
                0x9d029108       0x8c build/default/production/_ext/1100529066/drv_sdspi_driver_interface.o
                0x9d029108                DRV_SDSPI_TimerStart

.text.st_clust  0x9d029194       0x8c
 .text.st_clust
                0x9d029194       0x8c build/default/production/_ext/411819097/ff.o

.text.FATFS_close
                0x9d029220       0x8c
 .text.FATFS_close
                0x9d029220       0x8c build/default/production/_ext/1269487135/sys_fs_fat_interface.o
                0x9d029220                FATFS_close

.text.FATFS_stat
                0x9d0292ac       0x8c
 .text.FATFS_stat
                0x9d0292ac       0x8c build/default/production/_ext/1269487135/sys_fs_fat_interface.o
                0x9d0292ac                FATFS_stat

.text.FATFS_closedir
                0x9d029338       0x8c
 .text.FATFS_closedir
                0x9d029338       0x8c build/default/production/_ext/1269487135/sys_fs_fat_interface.o
                0x9d029338                FATFS_closedir

.text.USB_DEVICE_EndpointDisable
                0x9d0293c4       0x8c
 .text.USB_DEVICE_EndpointDisable
                0x9d0293c4       0x8c build/default/production/_ext/308758920/usb_device.o
                0x9d0293c4                USB_DEVICE_EndpointDisable

.text.USB_DEVICE_ControlReceive
                0x9d029450       0x8c
 .text.USB_DEVICE_ControlReceive
                0x9d029450       0x8c build/default/production/_ext/308758920/usb_device.o
                0x9d029450                USB_DEVICE_ControlReceive

.text.USB_DEVICE_IRPCancelAll
                0x9d0294dc       0x8c
 .text.USB_DEVICE_IRPCancelAll
                0x9d0294dc       0x8c build/default/production/_ext/308758920/usb_device.o
                0x9d0294dc                USB_DEVICE_IRPCancelAll

.text.xPortStartScheduler
                0x9d029568       0x8c
 .text.xPortStartScheduler
                0x9d029568       0x8c build/default/production/_ext/951553246/port.o
                0x9d029568                xPortStartScheduler

.text.DRV_SDSPI_IsAttached
                0x9d0295f4       0x88
 .text.DRV_SDSPI_IsAttached
                0x9d0295f4       0x88 build/default/production/_ext/1100529066/drv_sdspi.o
                0x9d0295f4                DRV_SDSPI_IsAttached

.text.ld_dword  0x9d02967c       0x88
 .text.ld_dword
                0x9d02967c       0x88 build/default/production/_ext/411819097/ff.o

.text.clear_share
                0x9d029704       0x88
 .text.clear_share
                0x9d029704       0x88 build/default/production/_ext/411819097/ff.o

.text.USB_DEVICE_Detach
                0x9d02978c       0x88
 .text.USB_DEVICE_Detach
                0x9d02978c       0x88 build/default/production/_ext/308758920/usb_device.o
                0x9d02978c                USB_DEVICE_Detach

.rodata.FatFsFunctions.FatFsFunctions
                0x9d029814       0x88
 .rodata.FatFsFunctions.FatFsFunctions
                0x9d029814       0x88 build/default/production/_ext/1171490990/initialization.o

.text.USBHS_EndpointRxFIFOFlush_Default
                0x9d02989c       0x84
 .text.USBHS_EndpointRxFIFOFlush_Default
                0x9d02989c       0x84 build/default/production/_ext/2071311437/drv_usbhs_device.o

.text.USBHS_TxEPStatusClear_Default
                0x9d029920       0x84
 .text.USBHS_TxEPStatusClear_Default
                0x9d029920       0x84 build/default/production/_ext/2071311437/drv_usbhs_device.o

.text.USBHS_RxEPStatusClear_Default
                0x9d0299a4       0x84
 .text.USBHS_RxEPStatusClear_Default
                0x9d0299a4       0x84 build/default/production/_ext/2071311437/drv_usbhs_device.o

.text.ld_clust  0x9d029a28       0x84
 .text.ld_clust
                0x9d029a28       0x84 build/default/production/_ext/411819097/ff.o

.text.get_fattime
                0x9d029aac       0x84
 .text.get_fattime
                0x9d029aac       0x84 build/default/production/_ext/565198302/diskio.o
                0x9d029aac                get_fattime

.text.vTaskExitCritical
                0x9d029b30       0x84
 .text.vTaskExitCritical
                0x9d029b30       0x84 build/default/production/_ext/404212886/FreeRTOS_tasks.o
                0x9d029b30                vTaskExitCritical

.text           0x9d029bb4       0x84
 .text          0x9d029bb4       0x84 c:/program files/microchip/xc32/v2.50/bin/bin/../../lib/gcc/pic32mx/4.8.3/../../../../pic32mx/lib/fpu64\libpic32.a(pic32_data_init.o)
                0x9d029bb4                __pic32_data_init

.text.DRV_SDSPI_SPISpeedSetup
                0x9d029c38       0x80
 .text.DRV_SDSPI_SPISpeedSetup
                0x9d029c38       0x80 build/default/production/_ext/1100529066/drv_sdspi_driver_interface.o
                0x9d029c38                DRV_SDSPI_SPISpeedSetup

.text.lDRV_SDSPI_SendInitClockPulses
                0x9d029cb8       0x80
 .text.lDRV_SDSPI_SendInitClockPulses
                0x9d029cb8       0x80 build/default/production/_ext/1100529066/drv_sdspi.o

.text.DRV_SDSPI_GeometryGet
                0x9d029d38       0x80
 .text.DRV_SDSPI_GeometryGet
                0x9d029d38       0x80 build/default/production/_ext/1100529066/drv_sdspi.o
                0x9d029d38                DRV_SDSPI_GeometryGet

.text.USBHS_EndpointTxFIFOFlush_Default
                0x9d029db8       0x80
 .text.USBHS_EndpointTxFIFOFlush_Default
                0x9d029db8       0x80 build/default/production/_ext/2071311437/drv_usbhs_device.o

.text.EVIC_Initialize
                0x9d029e38       0x80
 .text.EVIC_Initialize
                0x9d029e38       0x80 build/default/production/_ext/1865200349/plib_evic.o
                0x9d029e38                EVIC_Initialize

.rodata.ExCvt.ExCvt
                0x9d029eb8       0x80
 .rodata.ExCvt.ExCvt
                0x9d029eb8       0x80 build/default/production/_ext/411819097/ff.o

.text.clst2sect
                0x9d029f38       0x80
 .text.clst2sect
                0x9d029f38       0x80 build/default/production/_ext/411819097/ff.o

.text.SYS_TIME_GetElapsedCount
                0x9d029fb8       0x80
 .text.SYS_TIME_GetElapsedCount
                0x9d029fb8       0x80 build/default/production/_ext/101884895/sys_time.o

.text.lDRV_SDSPI_EnterIdleState
                0x9d02a038       0x7c
 .text.lDRV_SDSPI_EnterIdleState
                0x9d02a038       0x7c build/default/production/_ext/1100529066/drv_sdspi.o

.text.CORETIMER_Start
                0x9d02a0b4       0x7c
 .text.CORETIMER_Start
                0x9d02a0b4       0x7c build/default/production/_ext/1249264884/plib_coretimer.o
                0x9d02a0b4                CORETIMER_Start

.text.sum_sfn   0x9d02a130       0x7c
 .text.sum_sfn  0x9d02a130       0x7c build/default/production/_ext/411819097/ff.o

.text.USB_DEVICE_Attach
                0x9d02a1ac       0x7c
 .text.USB_DEVICE_Attach
                0x9d02a1ac       0x7c build/default/production/_ext/308758920/usb_device.o
                0x9d02a1ac                USB_DEVICE_Attach

.text.F_USB_DEVICE_ClientHandleValidate
                0x9d02a228       0x7c
 .text.F_USB_DEVICE_ClientHandleValidate
                0x9d02a228       0x7c build/default/production/_ext/308758920/usb_device.o
                0x9d02a228                F_USB_DEVICE_ClientHandleValidate

.text.prvTaskExitError
                0x9d02a2a4       0x7c
 .text.prvTaskExitError
                0x9d02a2a4       0x7c build/default/production/_ext/951553246/port.o

.text.enq_share
                0x9d02a320       0x78
 .text.enq_share
                0x9d02a320       0x78 build/default/production/_ext/411819097/ff.o

.text.F_USB_DEVICE_CDC_EndpointDisable
                0x9d02a398       0x78
 .text.F_USB_DEVICE_CDC_EndpointDisable
                0x9d02a398       0x78 build/default/production/_ext/308758920/usb_device_cdc.o
                0x9d02a398                F_USB_DEVICE_CDC_EndpointDisable

.text.vTaskPlaceOnEventList
                0x9d02a410       0x78
 .text.vTaskPlaceOnEventList
                0x9d02a410       0x78 build/default/production/_ext/404212886/FreeRTOS_tasks.o
                0x9d02a410                vTaskPlaceOnEventList

.text.PLIB_USBHS_DeviceRxEndpointConfigure
                0x9d02a488       0x74
 .text.PLIB_USBHS_DeviceRxEndpointConfigure
                0x9d02a488       0x74 build/default/production/_ext/2071311437/drv_usbhs_device.o

.text.PLIB_USBHS_DeviceTxEndpointConfigure
                0x9d02a4fc       0x74
 .text.PLIB_USBHS_DeviceTxEndpointConfigure
                0x9d02a4fc       0x74 build/default/production/_ext/2071311437/drv_usbhs_device.o

.text.DRV_USBHS_Close
                0x9d02a570       0x74
 .text.DRV_USBHS_Close
                0x9d02a570       0x74 build/default/production/_ext/2071311437/drv_usbhs.o
                0x9d02a570                DRV_USBHS_Close

.text.SYS_DMA_AddressingModeSetup
                0x9d02a5e4       0x74
 .text.SYS_DMA_AddressingModeSetup
                0x9d02a5e4       0x74 build/default/production/_ext/14461671/sys_dma.o
                0x9d02a5e4                SYS_DMA_AddressingModeSetup

.text.FATFS_read
                0x9d02a658       0x74
 .text.FATFS_read
                0x9d02a658       0x74 build/default/production/_ext/1269487135/sys_fs_fat_interface.o
                0x9d02a658                FATFS_read

.text.FATFS_write
                0x9d02a6cc       0x74
 .text.FATFS_write
                0x9d02a6cc       0x74 build/default/production/_ext/1269487135/sys_fs_fat_interface.o
                0x9d02a6cc                FATFS_write

.text.SYS_INT_SourceDisable
                0x9d02a740       0x74
 .text.SYS_INT_SourceDisable
                0x9d02a740       0x74 build/default/production/_ext/1881668453/sys_int.o
                0x9d02a740                SYS_INT_SourceDisable

.text.SYS_TIME_ResourceUnlock
                0x9d02a7b4       0x74
 .text.SYS_TIME_ResourceUnlock
                0x9d02a7b4       0x74 build/default/production/_ext/101884895/sys_time.o

.text.vPortIncrementTick
                0x9d02a828       0x74
 .text.vPortIncrementTick
                0x9d02a828       0x74 build/default/production/_ext/951553246/port.o
                0x9d02a828                vPortIncrementTick

.text.PLIB_USBHS_DMAOperationEnable
                0x9d000110       0x70
 .text.PLIB_USBHS_DMAOperationEnable
                0x9d000110       0x70 build/default/production/_ext/2071311437/drv_usbhs_device.o

.text.F_DRV_USBHS_DEVICE_FIFOFreeAll
                0x9d000190       0x70
 .text.F_DRV_USBHS_DEVICE_FIFOFreeAll
                0x9d000190       0x70 build/default/production/_ext/2071311437/drv_usbhs_device.o
                0x9d000190                F_DRV_USBHS_DEVICE_FIFOFreeAll

.text.CORE_TIMER_InterruptHandler
                0x9d02a89c       0x70
 .text.CORE_TIMER_InterruptHandler
                0x9d02a89c       0x70 build/default/production/_ext/1249264884/plib_coretimer.o
                0x9d02a89c                CORE_TIMER_InterruptHandler

.text.f_putc    0x9d02a90c       0x70
 .text.f_putc   0x9d02a90c       0x70 build/default/production/_ext/411819097/ff.o
                0x9d02a90c                f_putc

.text.OSAL_CRIT_Enter
                0x9d02a97c       0x6c
 .text.OSAL_CRIT_Enter
                0x9d02a97c       0x6c build/default/production/_ext/1529399856/osal_freertos.o
                0x9d02a97c                OSAL_CRIT_Enter

.text.OSAL_CRIT_Leave
                0x9d02a9e8       0x6c
 .text.OSAL_CRIT_Leave
                0x9d02a9e8       0x6c build/default/production/_ext/1529399856/osal_freertos.o
                0x9d02a9e8                OSAL_CRIT_Leave

.text.OSAL_MUTEX_Unlock
                0x9d02aa54       0x6c
 .text.OSAL_MUTEX_Unlock
                0x9d02aa54       0x6c build/default/production/_ext/1529399856/osal_freertos.o
                0x9d02aa54                OSAL_MUTEX_Unlock

.text.EVIC_SourceEnable
                0x9d02aac0       0x6c
 .text.EVIC_SourceEnable
                0x9d02aac0       0x6c build/default/production/_ext/1865200349/plib_evic.o
                0x9d02aac0                EVIC_SourceEnable

.text.EVIC_SourceDisable
                0x9d02ab2c       0x6c
 .text.EVIC_SourceDisable
                0x9d02ab2c       0x6c build/default/production/_ext/1865200349/plib_evic.o
                0x9d02ab2c                EVIC_SourceDisable

.text.EVIC_SourceStatusClear
                0x9d02ab98       0x6c
 .text.EVIC_SourceStatusClear
                0x9d02ab98       0x6c build/default/production/_ext/1865200349/plib_evic.o
                0x9d02ab98                EVIC_SourceStatusClear

.text.F_USB_DEVICE_CDC_GlobalInitialize
                0x9d02ac04       0x6c
 .text.F_USB_DEVICE_CDC_GlobalInitialize
                0x9d02ac04       0x6c build/default/production/_ext/308758920/usb_device_cdc.o
                0x9d02ac04                F_USB_DEVICE_CDC_GlobalInitialize

.text.prvIsQueueFull
                0x9d02ac70       0x6c
 .text.prvIsQueueFull
                0x9d02ac70       0x6c build/default/production/_ext/404212886/queue.o

.text.DRV_SDSPI_SPIWrite
                0x9d02acdc       0x68
 .text.DRV_SDSPI_SPIWrite
                0x9d02acdc       0x68 build/default/production/_ext/1100529066/drv_sdspi_driver_interface.o
                0x9d02acdc                DRV_SDSPI_SPIWrite

.text.DRV_SDSPI_SPIRead
                0x9d02ad44       0x68
 .text.DRV_SDSPI_SPIRead
                0x9d02ad44       0x68 build/default/production/_ext/1100529066/drv_sdspi_driver_interface.o
                0x9d02ad44                DRV_SDSPI_SPIRead

.text.DRV_SDSPI_EventHandlerSet
                0x9d02adac       0x68
 .text.DRV_SDSPI_EventHandlerSet
                0x9d02adac       0x68 build/default/production/_ext/1100529066/drv_sdspi.o
                0x9d02adac                DRV_SDSPI_EventHandlerSet

.text.USBHS_InterruptEnableSet_Default
                0x9d02ae14       0x68
 .text.USBHS_InterruptEnableSet_Default
                0x9d02ae14       0x68 build/default/production/_ext/2071311437/drv_usbhs_device.o

.text.EVIC_SourceIsEnabled
                0x9d02ae7c       0x68
 .text.EVIC_SourceIsEnabled
                0x9d02ae7c       0x68 build/default/production/_ext/1865200349/plib_evic.o
                0x9d02ae7c                EVIC_SourceIsEnabled

.text.st_word   0x9d02aee4       0x68
 .text.st_word  0x9d02aee4       0x68 build/default/production/_ext/411819097/ff.o

.text.FATFS_chdrive
                0x9d02af4c       0x68
 .text.FATFS_chdrive
                0x9d02af4c       0x68 build/default/production/_ext/1269487135/sys_fs_fat_interface.o
                0x9d02af4c                FATFS_chdrive

.text.vListInitialise
                0x9d02afb4       0x68
 .text.vListInitialise
                0x9d02afb4       0x68 build/default/production/_ext/404212886/list.o
                0x9d02afb4                vListInitialise

.text.prvInitialiseMutex
                0x9d02b01c       0x68
 .text.prvInitialiseMutex
                0x9d02b01c       0x68 build/default/production/_ext/404212886/queue.o

.text.xQueueCreateMutex
                0x9d02b084       0x68
 .text.xQueueCreateMutex
                0x9d02b084       0x68 build/default/production/_ext/404212886/queue.o
                0x9d02b084                xQueueCreateMutex

.text.memmove   0x9d02b0ec       0x68
 .text.memmove  0x9d02b0ec       0x68 c:/program files/microchip/xc32/v2.50/bin/bin/../../lib/gcc/pic32mx/4.8.3/../../../../pic32mx/lib/fpu64\liblega-c.a(memmove.o)
                0x9d02b0ec                memmove

.text.DRV_SDSPI_CmdResponseTimerStop
                0x9d02b154       0x64
 .text.DRV_SDSPI_CmdResponseTimerStop
                0x9d02b154       0x64 build/default/production/_ext/1100529066/drv_sdspi_driver_interface.o
                0x9d02b154                DRV_SDSPI_CmdResponseTimerStop

.text.DRV_SDSPI_TimerStop
                0x9d02b1b8       0x64
 .text.DRV_SDSPI_TimerStop
                0x9d02b1b8       0x64 build/default/production/_ext/1100529066/drv_sdspi_driver_interface.o
                0x9d02b1b8                DRV_SDSPI_TimerStop

.text.USBHS_DeviceAttach_Default
                0x9d02b21c       0x64
 .text.USBHS_DeviceAttach_Default
                0x9d02b21c       0x64 build/default/production/_ext/2071311437/drv_usbhs_device.o

.text.F_DRV_USBHS_DEVICE_EndpointObjectEnable
                0x9d02b280       0x64
 .text.F_DRV_USBHS_DEVICE_EndpointObjectEnable
                0x9d02b280       0x64 build/default/production/_ext/2071311437/drv_usbhs_device.o
                0x9d02b280                F_DRV_USBHS_DEVICE_EndpointObjectEnable

.text.OSAL_MUTEX_Create
                0x9d02b2e4       0x64
 .text.OSAL_MUTEX_Create
                0x9d02b2e4       0x64 build/default/production/_ext/1529399856/osal_freertos.o
                0x9d02b2e4                OSAL_MUTEX_Create

.text.f_chdrive
                0x9d02b348       0x64
 .text.f_chdrive
                0x9d02b348       0x64 build/default/production/_ext/411819097/ff.o
                0x9d02b348                f_chdrive

.text.SYS_FS_MEDIA_T_MANAGER_UpdateVolToPart
                0x9d02b3ac       0x64
 .text.SYS_FS_MEDIA_T_MANAGER_UpdateVolToPart
                0x9d02b3ac       0x64 build/default/production/_ext/1269487135/sys_fs_media_manager.o

.text.vApplicationStackOverflowHook
                0x9d02b410       0x64
 .text.vApplicationStackOverflowHook
                0x9d02b410       0x64 build/default/production/_ext/1171490990/freertos_hooks.o
                0x9d02b410                vApplicationStackOverflowHook

.text.prvIsQueueEmpty
                0x9d02b474       0x64
 .text.prvIsQueueEmpty
                0x9d02b474       0x64 build/default/production/_ext/404212886/queue.o

.text.DMAC_ChannelCallbackRegister
                0x9d02b4d8       0x64
 .text.DMAC_ChannelCallbackRegister
                0x9d02b4d8       0x64 build/default/production/_ext/1865161661/plib_dmac.o
                0x9d02b4d8                DMAC_ChannelCallbackRegister

.text.DRV_SDSPI_Read
                0x9d02b53c       0x60
 .text.DRV_SDSPI_Read
                0x9d02b53c       0x60 build/default/production/_ext/1100529066/drv_sdspi.o
                0x9d02b53c                DRV_SDSPI_Read

.text.DRV_SDSPI_Write
                0x9d02b59c       0x60
 .text.DRV_SDSPI_Write
                0x9d02b59c       0x60 build/default/production/_ext/1100529066/drv_sdspi.o
                0x9d02b59c                DRV_SDSPI_Write

.text.DRV_USBHS_DEVICE_RemoteWakeupStart
                0x9d02b5fc       0x60
 .text.DRV_USBHS_DEVICE_RemoteWakeupStart
                0x9d02b5fc       0x60 build/default/production/_ext/2071311437/drv_usbhs_device.o
                0x9d02b5fc                DRV_USBHS_DEVICE_RemoteWakeupStart

.text.DRV_USBHS_DEVICE_RemoteWakeupStop
                0x9d02b65c       0x60
 .text.DRV_USBHS_DEVICE_RemoteWakeupStop
                0x9d02b65c       0x60 build/default/production/_ext/2071311437/drv_usbhs_device.o
                0x9d02b65c                DRV_USBHS_DEVICE_RemoteWakeupStop

.text.SYS_CACHE_InvalidateDCache_by_Addr
                0x9d02b6bc       0x60
 .text.SYS_CACHE_InvalidateDCache_by_Addr
                0x9d02b6bc       0x60 build/default/production/_ext/1014039709/sys_cache.o
                0x9d02b6bc                SYS_CACHE_InvalidateDCache_by_Addr

.text.SYS_CACHE_CleanDCache_by_Addr
                0x9d02b71c       0x60
 .text.SYS_CACHE_CleanDCache_by_Addr
                0x9d02b71c       0x60 build/default/production/_ext/1014039709/sys_cache.o
                0x9d02b71c                SYS_CACHE_CleanDCache_by_Addr

.text.FATFS_chmod
                0x9d02b77c       0x60
 .text.FATFS_chmod
                0x9d02b77c       0x60 build/default/production/_ext/1269487135/sys_fs_fat_interface.o
                0x9d02b77c                FATFS_chmod

.text.xTaskGetSchedulerState
                0x9d02b7dc       0x60
 .text.xTaskGetSchedulerState
                0x9d02b7dc       0x60 build/default/production/_ext/404212886/FreeRTOS_tasks.o
                0x9d02b7dc                xTaskGetSchedulerState

.text.DRV_SDSPI_SPIBlockWrite
                0x9d02b83c       0x5c
 .text.DRV_SDSPI_SPIBlockWrite
                0x9d02b83c       0x5c build/default/production/_ext/1100529066/drv_sdspi_driver_interface.o
                0x9d02b83c                DRV_SDSPI_SPIBlockWrite

.text.DRV_SDSPI_SPIBlockRead
                0x9d02b898       0x5c
 .text.DRV_SDSPI_SPIBlockRead
                0x9d02b898       0x5c build/default/production/_ext/1100529066/drv_sdspi_driver_interface.o
                0x9d02b898                DRV_SDSPI_SPIBlockRead

.text.USBHS_TxInterruptDisable_Default
                0x9d02b8f4       0x5c
 .text.USBHS_TxInterruptDisable_Default
                0x9d02b8f4       0x5c build/default/production/_ext/2071311437/drv_usbhs_device.o

.text.USBHS_RxInterruptDisable_Default
                0x9d02b950       0x5c
 .text.USBHS_RxInterruptDisable_Default
                0x9d02b950       0x5c build/default/production/_ext/2071311437/drv_usbhs_device.o

.text.ld_word   0x9d02b9ac       0x5c
 .text.ld_word  0x9d02b9ac       0x5c build/default/production/_ext/411819097/ff.o

.text.FATFS_lseek
                0x9d02ba08       0x5c
 .text.FATFS_lseek
                0x9d02ba08       0x5c build/default/production/_ext/1269487135/sys_fs_fat_interface.o
                0x9d02ba08                FATFS_lseek

.text.FATFS_gets
                0x9d02ba64       0x5c
 .text.FATFS_gets
                0x9d02ba64       0x5c build/default/production/_ext/1269487135/sys_fs_fat_interface.o
                0x9d02ba64                FATFS_gets

.text.FATFS_sync
                0x9d02bac0       0x5c
 .text.FATFS_sync
                0x9d02bac0       0x5c build/default/production/_ext/1269487135/sys_fs_fat_interface.o
                0x9d02bac0                FATFS_sync

.text.FATFS_putc
                0x9d02bb1c       0x5c
 .text.FATFS_putc
                0x9d02bb1c       0x5c build/default/production/_ext/1269487135/sys_fs_fat_interface.o
                0x9d02bb1c                FATFS_putc

.text.FATFS_printf
                0x9d02bb78       0x5c
 .text.FATFS_printf
                0x9d02bb78       0x5c build/default/production/_ext/1269487135/sys_fs_fat_interface.o
                0x9d02bb78                FATFS_printf

.text.vApplicationMallocFailedHook
                0x9d02bbd4       0x5c
 .text.vApplicationMallocFailedHook
                0x9d02bbd4       0x5c build/default/production/_ext/1171490990/freertos_hooks.o
                0x9d02bbd4                vApplicationMallocFailedHook

.text.prvGetDisinheritPriorityAfterTimeout
                0x9d02bc30       0x5c
 .text.prvGetDisinheritPriorityAfterTimeout
                0x9d02bc30       0x5c build/default/production/_ext/404212886/queue.o

.text.lDRV_SDSPI_PollBusyStatus
                0x9d02bc8c       0x58
 .text.lDRV_SDSPI_PollBusyStatus
                0x9d02bc8c       0x58 build/default/production/_ext/1100529066/drv_sdspi.o

.text.USBHS_DeviceRxEndpointStallEnable_Default
                0x9d02bce4       0x58
 .text.USBHS_DeviceRxEndpointStallEnable_Default
                0x9d02bce4       0x58 build/default/production/_ext/2071311437/drv_usbhs_device.o

.text.USBHS_DeviceTxEndpointStallEnable_Default
                0x9d02bd3c       0x58
 .text.USBHS_DeviceTxEndpointStallEnable_Default
                0x9d02bd3c       0x58 build/default/production/_ext/2071311437/drv_usbhs_device.o

.text.USBHS_DeviceTxEndpointPacketReady_Default
                0x9d02bd94       0x58
 .text.USBHS_DeviceTxEndpointPacketReady_Default
                0x9d02bd94       0x58 build/default/production/_ext/2071311437/drv_usbhs_device.o

.text.PLIB_USBHS_DeviceEPFIFOLoad
                0x9d02bdec       0x58
 .text.PLIB_USBHS_DeviceEPFIFOLoad
                0x9d02bdec       0x58 build/default/production/_ext/2071311437/drv_usbhs_device.o

.text.FATFS_fdisk
                0x9d02be44       0x58
 .text.FATFS_fdisk
                0x9d02be44       0x58 build/default/production/_ext/1269487135/sys_fs_fat_interface.o
                0x9d02be44                FATFS_fdisk

.text.vAssertCalled
                0x9d02be9c       0x58
 .text.vAssertCalled
                0x9d02be9c       0x58 build/default/production/_ext/1171490990/freertos_hooks.o
                0x9d02be9c                vAssertCalled

.rodata         0x9d02bef4       0x58
 .rodata        0x9d02bef4       0x58 build/default/production/_ext/1171490990/tasks.o

.text.uxPortSetInterruptMaskFromISR
                0x9d02bf4c       0x58
 .text.uxPortSetInterruptMaskFromISR
                0x9d02bf4c       0x58 build/default/production/_ext/951553246/port.o
                0x9d02bf4c                uxPortSetInterruptMaskFromISR

.text.prvIdleTask
                0x9d02bfa4       0x58
 .text.prvIdleTask
                0x9d02bfa4       0x58 build/default/production/_ext/404212886/FreeRTOS_tasks.o

.text.GPIO_PinSet
                0x9d02bffc       0x54
 .text.GPIO_PinSet
                0x9d02bffc       0x54 build/default/production/_ext/1100529066/drv_sdspi.o

.text.DRV_SDSPI_RegisterWithSysFs
                0x9d02c050       0x54
 .text.DRV_SDSPI_RegisterWithSysFs
                0x9d02c050       0x54 build/default/production/_ext/1100529066/drv_sdspi_file_system.o
                0x9d02c050                DRV_SDSPI_RegisterWithSysFs

.text.GPIO_PinSet
                0x9d02c0a4       0x54
 .text.GPIO_PinSet
                0x9d02c0a4       0x54 build/default/production/_ext/2070931557/drv_spi.o

.text.GPIO_PinClear
                0x9d02c0f8       0x54
 .text.GPIO_PinClear
                0x9d02c0f8       0x54 build/default/production/_ext/2070931557/drv_spi.o

.text.DRV_SPI_ReadTransfer
                0x9d02c14c       0x54
 .text.DRV_SPI_ReadTransfer
                0x9d02c14c       0x54 build/default/production/_ext/2070931557/drv_spi.o
                0x9d02c14c                DRV_SPI_ReadTransfer

.text.USBHS_GetReceiveDataCount_Default
                0x9d02c1a0       0x54
 .text.USBHS_GetReceiveDataCount_Default
                0x9d02c1a0       0x54 build/default/production/_ext/2071311437/drv_usbhs_device.o

.rodata         0x9d02c1f4       0x54
 .rodata        0x9d02c1f4       0x54 build/default/production/_ext/411819097/ff.o

.text.FATFS_eof
                0x9d02c248       0x54
 .text.FATFS_eof
                0x9d02c248       0x54 build/default/production/_ext/1269487135/sys_fs_fat_interface.o
                0x9d02c248                FATFS_eof

.text.FATFS_truncate
                0x9d02c29c       0x54
 .text.FATFS_truncate
                0x9d02c29c       0x54 build/default/production/_ext/1269487135/sys_fs_fat_interface.o
                0x9d02c29c                FATFS_truncate

.text.FATFS_puts
                0x9d02c2f0       0x54
 .text.FATFS_puts
                0x9d02c2f0       0x54 build/default/production/_ext/1269487135/sys_fs_fat_interface.o
                0x9d02c2f0                FATFS_puts

.text.main_entry
                0x9d02c344       0x54
 .text.main_entry
                0x9d02c344       0x54 C:\Users\asus3\AppData\Local\Temp\ccX7AMLn.o
                0x9d02c378                __crt0_exit

.text.DRV_SDSPI_SPIExclusiveAccess
                0x9d02c398       0x50
 .text.DRV_SDSPI_SPIExclusiveAccess
                0x9d02c398       0x50 build/default/production/_ext/1100529066/drv_sdspi_driver_interface.o
                0x9d02c398                DRV_SDSPI_SPIExclusiveAccess

.text.lDRV_SDSPI_MAKE_HANDLE
                0x9d02c3e8       0x50
 .text.lDRV_SDSPI_MAKE_HANDLE
                0x9d02c3e8       0x50 build/default/production/_ext/1100529066/drv_sdspi.o

.text.lDRV_SDSPI_UPDATE_TOKEN
                0x9d02c438       0x50
 .text.lDRV_SDSPI_UPDATE_TOKEN
                0x9d02c438       0x50 build/default/production/_ext/1100529066/drv_sdspi.o

.text.lDRV_SPI_MAKE_HANDLE
                0x9d02c488       0x50
 .text.lDRV_SPI_MAKE_HANDLE
                0x9d02c488       0x50 build/default/production/_ext/2070931557/drv_spi.o

.text.lDRV_SPI_UPDATE_TOKEN
                0x9d02c4d8       0x50
 .text.lDRV_SPI_UPDATE_TOKEN
                0x9d02c4d8       0x50 build/default/production/_ext/2070931557/drv_spi.o

.text.DRV_SPI_WriteTransfer
                0x9d02c528       0x50
 .text.DRV_SPI_WriteTransfer
                0x9d02c528       0x50 build/default/production/_ext/2070931557/drv_spi.o
                0x9d02c528                DRV_SPI_WriteTransfer

.text.USBHS_LoadEPInIndex_Default
                0x9d02c578       0x50
 .text.USBHS_LoadEPInIndex_Default
                0x9d02c578       0x50 build/default/production/_ext/2071311437/drv_usbhs_device.o

.text.USBHS_DeviceAddressSet_Default
                0x9d02c5c8       0x50
 .text.USBHS_DeviceAddressSet_Default
                0x9d02c5c8       0x50 build/default/production/_ext/2071311437/drv_usbhs_device.o

.text.USBHS_TxEPStatusGet_Default
                0x9d02c618       0x50
 .text.USBHS_TxEPStatusGet_Default
                0x9d02c618       0x50 build/default/production/_ext/2071311437/drv_usbhs_device.o

.text.USBHS_RxEPStatusGet_Default
                0x9d02c668       0x50
 .text.USBHS_RxEPStatusGet_Default
                0x9d02c668       0x50 build/default/production/_ext/2071311437/drv_usbhs_device.o

.text.PLIB_USBHS_DeviceEPFIFOUnload
                0x9d02c6b8       0x50
 .text.PLIB_USBHS_DeviceEPFIFOUnload
                0x9d02c6b8       0x50 build/default/production/_ext/2071311437/drv_usbhs_device.o

.text.PLIB_USBHS_InterruptEnableSet
                0x9d02c708       0x50
 .text.PLIB_USBHS_InterruptEnableSet
                0x9d02c708       0x50 build/default/production/_ext/2071311437/drv_usbhs_device.o

.text.PLIB_USBHS_TxEPStatusClear
                0x9d02c758       0x50
 .text.PLIB_USBHS_TxEPStatusClear
                0x9d02c758       0x50 build/default/production/_ext/2071311437/drv_usbhs_device.o

.text.PLIB_USBHS_RxEPStatusClear
                0x9d02c7a8       0x50
 .text.PLIB_USBHS_RxEPStatusClear
                0x9d02c7a8       0x50 build/default/production/_ext/2071311437/drv_usbhs_device.o

.text.putc_init
                0x9d02c7f8       0x50
 .text.putc_init
                0x9d02c7f8       0x50 build/default/production/_ext/411819097/ff.o

.text.FATFS_getlabel
                0x9d02c848       0x50
 .text.FATFS_getlabel
                0x9d02c848       0x50 build/default/production/_ext/1269487135/sys_fs_fat_interface.o
                0x9d02c848                FATFS_getlabel

.text.FATFS_utime
                0x9d02c898       0x50
 .text.FATFS_utime
                0x9d02c898       0x50 build/default/production/_ext/1269487135/sys_fs_fat_interface.o
                0x9d02c898                FATFS_utime

.text.SYS_TIME_UPDATE_TOKEN
                0x9d02c8e8       0x50
 .text.SYS_TIME_UPDATE_TOKEN
                0x9d02c8e8       0x50 build/default/production/_ext/101884895/sys_time.o

.text.prvResetNextTaskUnblockTime
                0x9d02c938       0x50
 .text.prvResetNextTaskUnblockTime
                0x9d02c938       0x50 build/default/production/_ext/404212886/FreeRTOS_tasks.o

.text.USBHS_GlobalInterruptEnable_Default
                0x9d02c988       0x4c
 .text.USBHS_GlobalInterruptEnable_Default
                0x9d02c988       0x4c build/default/production/_ext/2071311437/drv_usbhs.o

.text.SYS_DMA_DataWidthSetup
                0x9d02c9d4       0x4c
 .text.SYS_DMA_DataWidthSetup
                0x9d02c9d4       0x4c build/default/production/_ext/14461671/sys_dma.o
                0x9d02c9d4                SYS_DMA_DataWidthSetup

.text.SYS_INT_SourceRestore
                0x9d02ca20       0x4c
 .text.SYS_INT_SourceRestore
                0x9d02ca20       0x4c build/default/production/_ext/1881668453/sys_int.o
                0x9d02ca20                SYS_INT_SourceRestore

.text.prvDeleteTCB
                0x9d02ca6c       0x4c
 .text.prvDeleteTCB
                0x9d02ca6c       0x4c build/default/production/_ext/404212886/FreeRTOS_tasks.o

.text.DRV_SPI_Lock
                0x9d02cab8       0x48
 .text.DRV_SPI_Lock
                0x9d02cab8       0x48 build/default/production/_ext/2070931557/drv_spi.o
                0x9d02cab8                DRV_SPI_Lock

.text.PLIB_USBHS_EndpointTxFIFOFlush
                0x9d02cb00       0x48
 .text.PLIB_USBHS_EndpointTxFIFOFlush
                0x9d02cb00       0x48 build/default/production/_ext/2071311437/drv_usbhs_device.o

.text.PLIB_USBHS_EndpointRxFIFOFlush
                0x9d02cb48       0x48
 .text.PLIB_USBHS_EndpointRxFIFOFlush
                0x9d02cb48       0x48 build/default/production/_ext/2071311437/drv_usbhs_device.o

.text.PLIB_USBHS_DMAErrorGet
                0x9d02cb90       0x48
 .text.PLIB_USBHS_DMAErrorGet
                0x9d02cb90       0x48 build/default/production/_ext/2071311437/drv_usbhs_device.o

.text.PLIB_USBHS_LoadEPInIndex
                0x9d02cbd8       0x48
 .text.PLIB_USBHS_LoadEPInIndex
                0x9d02cbd8       0x48 build/default/production/_ext/2071311437/drv_usbhs_device.o

.text.PLIB_USBHS_GetReceiveDataCount
                0x9d02cc20       0x48
 .text.PLIB_USBHS_GetReceiveDataCount
                0x9d02cc20       0x48 build/default/production/_ext/2071311437/drv_usbhs_device.o

.text.PLIB_USBHS_TestModeEnter
                0x9d02cc68       0x48
 .text.PLIB_USBHS_TestModeEnter
                0x9d02cc68       0x48 build/default/production/_ext/2071311437/drv_usbhs_device.o

.text.PLIB_USBHS_DeviceAddressSet
                0x9d02ccb0       0x48
 .text.PLIB_USBHS_DeviceAddressSet
                0x9d02ccb0       0x48 build/default/production/_ext/2071311437/drv_usbhs_device.o

.text.PLIB_USBHS_TxEPStatusGet
                0x9d02ccf8       0x48
 .text.PLIB_USBHS_TxEPStatusGet
                0x9d02ccf8       0x48 build/default/production/_ext/2071311437/drv_usbhs_device.o

.text.PLIB_USBHS_RxEPStatusGet
                0x9d02cd40       0x48
 .text.PLIB_USBHS_RxEPStatusGet
                0x9d02cd40       0x48 build/default/production/_ext/2071311437/drv_usbhs_device.o

.text.PLIB_USBHS_DeviceRxEndpointStallEnable
                0x9d02cd88       0x48
 .text.PLIB_USBHS_DeviceRxEndpointStallEnable
                0x9d02cd88       0x48 build/default/production/_ext/2071311437/drv_usbhs_device.o

.text.PLIB_USBHS_DeviceTxEndpointStallEnable
                0x9d02cdd0       0x48
 .text.PLIB_USBHS_DeviceTxEndpointStallEnable
                0x9d02cdd0       0x48 build/default/production/_ext/2071311437/drv_usbhs_device.o

.text.PLIB_USBHS_DeviceRxEndpointStallDisable
                0x9d02ce18       0x48
 .text.PLIB_USBHS_DeviceRxEndpointStallDisable
                0x9d02ce18       0x48 build/default/production/_ext/2071311437/drv_usbhs_device.o

.text.PLIB_USBHS_DeviceTxEndpointStallDisable
                0x9d02ce60       0x48
 .text.PLIB_USBHS_DeviceTxEndpointStallDisable
                0x9d02ce60       0x48 build/default/production/_ext/2071311437/drv_usbhs_device.o

.text.PLIB_USBHS_DeviceTxEndpointPacketReady
                0x9d02cea8       0x48
 .text.PLIB_USBHS_DeviceTxEndpointPacketReady
                0x9d02cea8       0x48 build/default/production/_ext/2071311437/drv_usbhs_device.o

.text.CACHE_DataCacheClean
                0x9d02cef0       0x48
 .text.CACHE_DataCacheClean
                0x9d02cef0       0x48 build/default/production/_ext/1984157808/plib_cache.o
                0x9d02cef0                CACHE_DataCacheClean

.text.CACHE_DataCacheInvalidate
                0x9d02cf38       0x48
 .text.CACHE_DataCacheInvalidate
                0x9d02cf38       0x48 build/default/production/_ext/1984157808/plib_cache.o
                0x9d02cf38                CACHE_DataCacheInvalidate

.text.CORETIMER_Stop
                0x9d02cf80       0x48
 .text.CORETIMER_Stop
                0x9d02cf80       0x48 build/default/production/_ext/1249264884/plib_coretimer.o
                0x9d02cf80                CORETIMER_Stop

.text.EVIC_INT_Disable
                0x9d02cfc8       0x48
 .text.EVIC_INT_Disable
                0x9d02cfc8       0x48 build/default/production/_ext/1865200349/plib_evic.o
                0x9d02cfc8                EVIC_INT_Disable

.text.SPI4_CallbackRegister
                0x9d02d010       0x48
 .text.SPI4_CallbackRegister
                0x9d02d010       0x48 build/default/production/_ext/298189674/plib_spi4_master.o
                0x9d02d010                SPI4_CallbackRegister

.text.disk_initialize
                0x9d02d058       0x48
 .text.disk_initialize
                0x9d02d058       0x48 build/default/production/_ext/565198302/diskio.o
                0x9d02d058                disk_initialize

.text.FATFS_getcwd
                0x9d02d0a0       0x48
 .text.FATFS_getcwd
                0x9d02d0a0       0x48 build/default/production/_ext/1269487135/sys_fs_fat_interface.o
                0x9d02d0a0                FATFS_getcwd

.text.FATFS_rename
                0x9d02d0e8       0x48
 .text.FATFS_rename
                0x9d02d0e8       0x48 build/default/production/_ext/1269487135/sys_fs_fat_interface.o
                0x9d02d0e8                FATFS_rename

.text.FATFS_error
                0x9d02d130       0x48
 .text.FATFS_error
                0x9d02d130       0x48 build/default/production/_ext/1269487135/sys_fs_fat_interface.o
                0x9d02d130                FATFS_error

.rodata         0x9d02d178       0x48
 .rodata        0x9d02d178       0x48 build/default/production/_ext/951553246/port.o

.text.USBHS_DMAInterruptGet_Default
                0x9d02d1c0       0x44
 .text.USBHS_DMAInterruptGet_Default
                0x9d02d1c0       0x44 build/default/production/_ext/2071311437/drv_usbhs_device.o

.text.GPIO_PortSet
                0x9d02d204       0x44
 .text.GPIO_PortSet
                0x9d02d204       0x44 build/default/production/_ext/1865254177/plib_gpio.o
                0x9d02d204                GPIO_PortSet

.text.GPIO_PortClear
                0x9d02d248       0x44
 .text.GPIO_PortClear
                0x9d02d248       0x44 build/default/production/_ext/1865254177/plib_gpio.o
                0x9d02d248                GPIO_PortClear

.text.dbc_1st   0x9d02d28c       0x44
 .text.dbc_1st  0x9d02d28c       0x44 build/default/production/_ext/411819097/ff.o

.text.dbc_2nd   0x9d02d2d0       0x44
 .text.dbc_2nd  0x9d02d2d0       0x44 build/default/production/_ext/411819097/ff.o

.rodata.highSpeedConfigurationDescriptor.highSpeedConfigurationDescriptor
                0x9d02d314       0x44
 .rodata.highSpeedConfigurationDescriptor.highSpeedConfigurationDescriptor
                0x9d02d314       0x44 build/default/production/_ext/1171490990/usb_device_init_data.o

.rodata.fullSpeedConfigurationDescriptor.fullSpeedConfigurationDescriptor
                0x9d02d358       0x44
 .rodata.fullSpeedConfigurationDescriptor.fullSpeedConfigurationDescriptor
                0x9d02d358       0x44 build/default/production/_ext/1171490990/usb_device_init_data.o

.rodata         0x9d02d39c       0x88
 .rodata        0x9d02d39c       0x44 build/default/production/_ext/1665200909/heap_4.o
 .rodata        0x9d02d3e0       0x44 build/default/production/_ext/404212886/FreeRTOS_tasks.o

.text           0x9d02d424       0x44
 .text          0x9d02d424       0x44 c:/program files/microchip/xc32/v2.50/bin/bin/../../lib/gcc/pic32mx/4.8.3/../../../../pic32mx/lib/fpu64\pic32_software_reset.o
                0x9d02d424                __pic32_software_reset

.text.lDRV_SDSPI_TurnOffCRC
                0x9d02d468       0x40
 .text.lDRV_SDSPI_TurnOffCRC
                0x9d02d468       0x40 build/default/production/_ext/1100529066/drv_sdspi.o

.text.lDRV_SDSPI_SetBlockLen
                0x9d02d4a8       0x40
 .text.lDRV_SDSPI_SetBlockLen
                0x9d02d4a8       0x40 build/default/production/_ext/1100529066/drv_sdspi.o

.text.USBHS_TxInterruptEnable_Default
                0x9d02d4e8       0x40
 .text.USBHS_TxInterruptEnable_Default
                0x9d02d4e8       0x40 build/default/production/_ext/2071311437/drv_usbhs_device.o

.text.USBHS_HighSpeedIsConnected_Default
                0x9d02d528       0x40
 .text.USBHS_HighSpeedIsConnected_Default
                0x9d02d528       0x40 build/default/production/_ext/2071311437/drv_usbhs_device.o

.text.USBHS_EP0SetupEndServiced_Default
                0x9d02d568       0x40
 .text.USBHS_EP0SetupEndServiced_Default
                0x9d02d568       0x40 build/default/production/_ext/2071311437/drv_usbhs_device.o

.text.USBHS_EP0RxPktRdyServiced_Default
                0x9d02d5a8       0x40
 .text.USBHS_EP0RxPktRdyServiced_Default
                0x9d02d5a8       0x40 build/default/production/_ext/2071311437/drv_usbhs_device.o

.text.USBHS_EP0TxPktRdy_Default
                0x9d02d5e8       0x40
 .text.USBHS_EP0TxPktRdy_Default
                0x9d02d5e8       0x40 build/default/production/_ext/2071311437/drv_usbhs_device.o

.text.USBHS_EP0DataEndSet_Default
                0x9d02d628       0x40
 .text.USBHS_EP0DataEndSet_Default
                0x9d02d628       0x40 build/default/production/_ext/2071311437/drv_usbhs_device.o

.text.USBHS_EP0StallEnable_Default
                0x9d02d668       0x40
 .text.USBHS_EP0StallEnable_Default
                0x9d02d668       0x40 build/default/production/_ext/2071311437/drv_usbhs_device.o

.text.PLIB_USBHS_TxInterruptEnable
                0x9d02d6a8       0x40
 .text.PLIB_USBHS_TxInterruptEnable
                0x9d02d6a8       0x40 build/default/production/_ext/2071311437/drv_usbhs_device.o

.text.PLIB_USBHS_TxInterruptDisable
                0x9d02d6e8       0x40
 .text.PLIB_USBHS_TxInterruptDisable
                0x9d02d6e8       0x40 build/default/production/_ext/2071311437/drv_usbhs_device.o

.text.PLIB_USBHS_RxInterruptDisable
                0x9d02d728       0x40
 .text.PLIB_USBHS_RxInterruptDisable
                0x9d02d728       0x40 build/default/production/_ext/2071311437/drv_usbhs_device.o

.text.PLIB_USBHS_DeviceAttach
                0x9d02d768       0x40
 .text.PLIB_USBHS_DeviceAttach
                0x9d02d768       0x40 build/default/production/_ext/2071311437/drv_usbhs_device.o

.text.DRV_USBHS_InterruptHandler
                0x9d02d7a8       0x40
 .text.DRV_USBHS_InterruptHandler
                0x9d02d7a8       0x40 build/default/production/_ext/2071311437/drv_usbhs.o
                0x9d02d7a8                DRV_USBHS_InterruptHandler

.text.DRV_USBHS_DMAInterruptHandler
                0x9d02d7e8       0x40
 .text.DRV_USBHS_DMAInterruptHandler
                0x9d02d7e8       0x40 build/default/production/_ext/2071311437/drv_usbhs.o
                0x9d02d7e8                DRV_USBHS_DMAInterruptHandler

.text.CORETIMER_Initialize
                0x9d02d828       0x40
 .text.CORETIMER_Initialize
                0x9d02d828       0x40 build/default/production/_ext/1249264884/plib_coretimer.o
                0x9d02d828                CORETIMER_Initialize

.text.EVIC_INT_Restore
                0x9d02d868       0x40
 .text.EVIC_INT_Restore
                0x9d02d868       0x40 build/default/production/_ext/1865200349/plib_evic.o
                0x9d02d868                EVIC_INT_Restore

.text.FATFS_chdir
                0x9d02d8a8       0x40
 .text.FATFS_chdir
                0x9d02d8a8       0x40 build/default/production/_ext/1269487135/sys_fs_fat_interface.o
                0x9d02d8a8                FATFS_chdir

.text.FATFS_tell
                0x9d02d8e8       0x40
 .text.FATFS_tell
                0x9d02d8e8       0x40 build/default/production/_ext/1269487135/sys_fs_fat_interface.o
                0x9d02d8e8                FATFS_tell

.text.FATFS_size
                0x9d02d928       0x40
 .text.FATFS_size
                0x9d02d928       0x40 build/default/production/_ext/1269487135/sys_fs_fat_interface.o
                0x9d02d928                FATFS_size

.text.FATFS_mkdir
                0x9d02d968       0x40
 .text.FATFS_mkdir
                0x9d02d968       0x40 build/default/production/_ext/1269487135/sys_fs_fat_interface.o
                0x9d02d968                FATFS_mkdir

.text.FATFS_unlink
                0x9d02d9a8       0x40
 .text.FATFS_unlink
                0x9d02d9a8       0x40 build/default/production/_ext/1269487135/sys_fs_fat_interface.o
                0x9d02d9a8                FATFS_unlink

.text.FATFS_setlabel
                0x9d02d9e8       0x40
 .text.FATFS_setlabel
                0x9d02d9e8       0x40 build/default/production/_ext/1269487135/sys_fs_fat_interface.o
                0x9d02d9e8                FATFS_setlabel

.text.SYS_INT_Restore
                0x9d02da28       0x40
 .text.SYS_INT_Restore
                0x9d02da28       0x40 build/default/production/_ext/1881668453/sys_int.o
                0x9d02da28                SYS_INT_Restore

.text.SYS_TIME_MAKE_HANDLE
                0x9d02da68       0x40
 .text.SYS_TIME_MAKE_HANDLE
                0x9d02da68       0x40 build/default/production/_ext/101884895/sys_time.o

.text.F_USB_DEVICE_Tasks
                0x9d02daa8       0x40
 .text.F_USB_DEVICE_Tasks
                0x9d02daa8       0x40 build/default/production/_ext/1171490990/tasks.o

.text.F_DRV_USBHS_Tasks
                0x9d02dae8       0x40
 .text.F_DRV_USBHS_Tasks
                0x9d02dae8       0x40 build/default/production/_ext/1171490990/tasks.o

.text.pvTaskIncrementMutexHeldCount
                0x9d02db28       0x40
 .text.pvTaskIncrementMutexHeldCount
                0x9d02db28       0x40 build/default/production/_ext/404212886/FreeRTOS_tasks.o
                0x9d02db28                pvTaskIncrementMutexHeldCount

.text.SYS_PORT_PinSet
                0x9d02db68       0x78
 .text.SYS_PORT_PinSet
                0x9d02db68       0x3c build/default/production/_ext/1100529066/drv_sdspi.o
 .text.SYS_PORT_PinSet
                0x9d02dba4       0x3c build/default/production/_ext/2070931557/drv_spi.o

.text.SYS_PORT_PinClear
                0x9d02dbe0       0x3c
 .text.SYS_PORT_PinClear
                0x9d02dbe0       0x3c build/default/production/_ext/2070931557/drv_spi.o

.text.USBHS_DeviceDetach_Default
                0x9d02dc1c       0x3c
 .text.USBHS_DeviceDetach_Default
                0x9d02dc1c       0x3c build/default/production/_ext/2071311437/drv_usbhs_device.o

.text.USBHS_EP0SentStallClear_Default
                0x9d02dc58       0x3c
 .text.USBHS_EP0SentStallClear_Default
                0x9d02dc58       0x3c build/default/production/_ext/2071311437/drv_usbhs_device.o

.text.USBHS_VBUSLevelGet_Default
                0x9d02dc94       0x3c
 .text.USBHS_VBUSLevelGet_Default
                0x9d02dc94       0x3c build/default/production/_ext/2071311437/drv_usbhs.o

.text.lDRV_SDSPI_0_Tasks
                0x9d02dcd0       0x3c
 .text.lDRV_SDSPI_0_Tasks
                0x9d02dcd0       0x3c build/default/production/_ext/1171490990/tasks.o

.text.vTaskInternalSetTimeOutState
                0x9d02dd0c       0x3c
 .text.vTaskInternalSetTimeOutState
                0x9d02dd0c       0x3c build/default/production/_ext/404212886/FreeRTOS_tasks.o
                0x9d02dd0c                vTaskInternalSetTimeOutState

.text.DRV_SDSPI_TimerCallback
                0x9d02dd48       0x38
 .text.DRV_SDSPI_TimerCallback
                0x9d02dd48       0x38 build/default/production/_ext/1100529066/drv_sdspi_driver_interface.o

.text.DRV_SDSPI_Tasks
                0x9d02dd80       0x38
 .text.DRV_SDSPI_Tasks
                0x9d02dd80       0x38 build/default/production/_ext/1100529066/drv_sdspi.o
                0x9d02dd80                DRV_SDSPI_Tasks

.text.USBHS_TxInterruptFlagsGet_Default
                0x9d02ddb8       0x38
 .text.USBHS_TxInterruptFlagsGet_Default
                0x9d02ddb8       0x38 build/default/production/_ext/2071311437/drv_usbhs_device.o

.text.USBHS_RxInterruptFlagsGet_Default
                0x9d02ddf0       0x38
 .text.USBHS_RxInterruptFlagsGet_Default
                0x9d02ddf0       0x38 build/default/production/_ext/2071311437/drv_usbhs_device.o

.text.USBHS_GenInterruptFlagsGet_Default
                0x9d02de28       0x38
 .text.USBHS_GenInterruptFlagsGet_Default
                0x9d02de28       0x38 build/default/production/_ext/2071311437/drv_usbhs_device.o

.text.USBHS_EP0StatusGet_Default
                0x9d02de60       0x38
 .text.USBHS_EP0StatusGet_Default
                0x9d02de60       0x38 build/default/production/_ext/2071311437/drv_usbhs_device.o

.text.USBHS_EP0RxPktRdyServicedDataEnd_Default
                0x9d02de98       0x38
 .text.USBHS_EP0RxPktRdyServicedDataEnd_Default
                0x9d02de98       0x38 build/default/production/_ext/2071311437/drv_usbhs_device.o

.text.USBHS_EP0TxPktRdyDataEnd_Default
                0x9d02ded0       0x38
 .text.USBHS_EP0TxPktRdyDataEnd_Default
                0x9d02ded0       0x38 build/default/production/_ext/2071311437/drv_usbhs_device.o

.text.PLIB_USBHS_TxInterruptFlagsGet
                0x9d02df08       0x38
 .text.PLIB_USBHS_TxInterruptFlagsGet
                0x9d02df08       0x38 build/default/production/_ext/2071311437/drv_usbhs_device.o

.text.PLIB_USBHS_RxInterruptFlagsGet
                0x9d02df40       0x38
 .text.PLIB_USBHS_RxInterruptFlagsGet
                0x9d02df40       0x38 build/default/production/_ext/2071311437/drv_usbhs_device.o

.text.PLIB_USBHS_GenInterruptFlagsGet
                0x9d02df78       0x38
 .text.PLIB_USBHS_GenInterruptFlagsGet
                0x9d02df78       0x38 build/default/production/_ext/2071311437/drv_usbhs_device.o

.text.PLIB_USBHS_HighSpeedIsConnected
                0x9d02dfb0       0x38
 .text.PLIB_USBHS_HighSpeedIsConnected
                0x9d02dfb0       0x38 build/default/production/_ext/2071311437/drv_usbhs_device.o

.text.PLIB_USBHS_DMAInterruptGet
                0x9d02dfe8       0x38
 .text.PLIB_USBHS_DMAInterruptGet
                0x9d02dfe8       0x38 build/default/production/_ext/2071311437/drv_usbhs_device.o

.text.PLIB_USBHS_GetEP0FIFOAddress
                0x9d02e020       0x38
 .text.PLIB_USBHS_GetEP0FIFOAddress
                0x9d02e020       0x38 build/default/production/_ext/2071311437/drv_usbhs_device.o

.text.PLIB_USBHS_GetEP0CSRAddress
                0x9d02e058       0x38
 .text.PLIB_USBHS_GetEP0CSRAddress
                0x9d02e058       0x38 build/default/production/_ext/2071311437/drv_usbhs_device.o

.text.PLIB_USBHS_DeviceDetach
                0x9d02e090       0x38
 .text.PLIB_USBHS_DeviceDetach
                0x9d02e090       0x38 build/default/production/_ext/2071311437/drv_usbhs_device.o

.text.PLIB_USBHS_EP0StatusGet
                0x9d02e0c8       0x38
 .text.PLIB_USBHS_EP0StatusGet
                0x9d02e0c8       0x38 build/default/production/_ext/2071311437/drv_usbhs_device.o

.text.PLIB_USBHS_EP0SentStallClear
                0x9d02e100       0x38
 .text.PLIB_USBHS_EP0SentStallClear
                0x9d02e100       0x38 build/default/production/_ext/2071311437/drv_usbhs_device.o

.text.PLIB_USBHS_EP0StallEnable
                0x9d02e138       0x38
 .text.PLIB_USBHS_EP0StallEnable
                0x9d02e138       0x38 build/default/production/_ext/2071311437/drv_usbhs_device.o

.text.PLIB_USBHS_EP0SetupEndServiced
                0x9d02e170       0x38
 .text.PLIB_USBHS_EP0SetupEndServiced
                0x9d02e170       0x38 build/default/production/_ext/2071311437/drv_usbhs_device.o

.text.PLIB_USBHS_EP0RxPktRdyServiced
                0x9d02e1a8       0x38
 .text.PLIB_USBHS_EP0RxPktRdyServiced
                0x9d02e1a8       0x38 build/default/production/_ext/2071311437/drv_usbhs_device.o

.text.PLIB_USBHS_EP0RxPktRdyServicedDataEnd
                0x9d02e1e0       0x38
 .text.PLIB_USBHS_EP0RxPktRdyServicedDataEnd
                0x9d02e1e0       0x38 build/default/production/_ext/2071311437/drv_usbhs_device.o

.text.PLIB_USBHS_EP0TxPktRdyDataEnd
                0x9d02e218       0x38
 .text.PLIB_USBHS_EP0TxPktRdyDataEnd
                0x9d02e218       0x38 build/default/production/_ext/2071311437/drv_usbhs_device.o

.text.PLIB_USBHS_EP0TxPktRdy
                0x9d02e250       0x38
 .text.PLIB_USBHS_EP0TxPktRdy
                0x9d02e250       0x38 build/default/production/_ext/2071311437/drv_usbhs_device.o

.text.PLIB_USBHS_EP0DataEndSet
                0x9d02e288       0x38
 .text.PLIB_USBHS_EP0DataEndSet
                0x9d02e288       0x38 build/default/production/_ext/2071311437/drv_usbhs_device.o

.rodata         0x9d02e2c0       0x38
 .rodata        0x9d02e2c0       0x38 build/default/production/_ext/2071311437/drv_usbhs_device.o

.text.USBHS_SoftResetEnable_Default
                0x9d02e2f8       0x38
 .text.USBHS_SoftResetEnable_Default
                0x9d02e2f8       0x38 build/default/production/_ext/2071311437/drv_usbhs.o

.text.PLIB_USBHS_SoftResetEnable
                0x9d02e330       0x38
 .text.PLIB_USBHS_SoftResetEnable
                0x9d02e330       0x38 build/default/production/_ext/2071311437/drv_usbhs.o

.text.PLIB_USBHS_GlobalInterruptEnable
                0x9d02e368       0x38
 .text.PLIB_USBHS_GlobalInterruptEnable
                0x9d02e368       0x38 build/default/production/_ext/2071311437/drv_usbhs.o

.text.PLIB_USBHS_VBUSLevelGet
                0x9d02e3a0       0x38
 .text.PLIB_USBHS_VBUSLevelGet
                0x9d02e3a0       0x38 build/default/production/_ext/2071311437/drv_usbhs.o

.text.CORETIMER_CallbackSet
                0x9d02e3d8       0x38
 .text.CORETIMER_CallbackSet
                0x9d02e3d8       0x38 build/default/production/_ext/1249264884/plib_coretimer.o
                0x9d02e3d8                CORETIMER_CallbackSet

.text.CORETIMER_CompareSet
                0x9d02e410       0x38
 .text.CORETIMER_CompareSet
                0x9d02e410       0x38 build/default/production/_ext/1249264884/plib_coretimer.o
                0x9d02e410                CORETIMER_CompareSet

.text.vPortClearInterruptMaskFromISR
                0x9d02e448       0x38
 .text.vPortClearInterruptMaskFromISR
                0x9d02e448       0x38 build/default/production/_ext/951553246/port.o
                0x9d02e448                vPortClearInterruptMaskFromISR

.text.USBHS_GetEP0FIFOAddress_Default
                0x9d02e480       0x34
 .text.USBHS_GetEP0FIFOAddress_Default
                0x9d02e480       0x34 build/default/production/_ext/2071311437/drv_usbhs_device.o

.text.USBHS_GetEP0CSRAddress_Default
                0x9d02e4b4       0x34
 .text.USBHS_GetEP0CSRAddress_Default
                0x9d02e4b4       0x34 build/default/production/_ext/2071311437/drv_usbhs_device.o

.text.DRV_USBHS_DEVICE_SOFNumberGet
                0x9d02e4e8       0x34
 .text.DRV_USBHS_DEVICE_SOFNumberGet
                0x9d02e4e8       0x34 build/default/production/_ext/2071311437/drv_usbhs_device.o
                0x9d02e4e8                DRV_USBHS_DEVICE_SOFNumberGet

.text.CORETIMER_CounterGet
                0x9d02e51c       0x34
 .text.CORETIMER_CounterGet
                0x9d02e51c       0x34 build/default/production/_ext/1249264884/plib_coretimer.o
                0x9d02e51c                CORETIMER_CounterGet

.text.SPI4_IsTransmitterBusy
                0x9d02e550       0x34
 .text.SPI4_IsTransmitterBusy
                0x9d02e550       0x34 build/default/production/_ext/298189674/plib_spi4_master.o
                0x9d02e550                SPI4_IsTransmitterBusy

.text.SYS_FS_MEDIA_MANAGER_RegisterTransferHandler
                0x9d02e584       0x34
 .text.SYS_FS_MEDIA_MANAGER_RegisterTransferHandler
                0x9d02e584       0x34 build/default/production/_ext/1269487135/sys_fs_media_manager.o
                0x9d02e584                SYS_FS_MEDIA_MANAGER_RegisterTransferHandler

.rodata.usbDevInitData.usbDevInitData
                0x9d02e5b8       0x34
 .rodata.usbDevInitData.usbDevInitData
                0x9d02e5b8       0x34 build/default/production/_ext/1171490990/usb_device_init_data.o
                0x9d02e5b8                usbDevInitData

.rodata.sdspiMediaFunctions.sdspiMediaFunctions
                0x9d02e5ec       0x30
 .rodata.sdspiMediaFunctions.sdspiMediaFunctions
                0x9d02e5ec       0x30 build/default/production/_ext/1100529066/drv_sdspi_file_system.o

.text.CACHE_CacheCoherencyGet
                0x9d02e61c       0x30
 .text.CACHE_CacheCoherencyGet
                0x9d02e61c       0x30 build/default/production/_ext/1984157808/plib_cache.o
                0x9d02e61c                CACHE_CacheCoherencyGet

.text.SYS_FS_Tasks
                0x9d02e64c       0x30
 .text.SYS_FS_Tasks
                0x9d02e64c       0x30 build/default/production/_ext/1269487135/sys_fs.o
                0x9d02e64c                SYS_FS_Tasks

.text.SYS_INT_Disable
                0x9d02e67c       0x30
 .text.SYS_INT_Disable
                0x9d02e67c       0x30 build/default/production/_ext/1881668453/sys_int.o
                0x9d02e67c                SYS_INT_Disable

.rodata.drvUSBInit.drvUSBInit
                0x9d02e6ac       0x30
 .rodata.drvUSBInit.drvUSBInit
                0x9d02e6ac       0x30 build/default/production/_ext/1171490990/initialization.o

.text.CORE_TIMER_Handler
                0x9d02e6dc       0x30
 .text.CORE_TIMER_Handler
                0x9d02e6dc       0x30 build/default/production/_ext/1171490990/interrupts.o
                0x9d02e6dc                CORE_TIMER_Handler

.text.USB_Handler
                0x9d02e70c       0x30
 .text.USB_Handler
                0x9d02e70c       0x30 build/default/production/_ext/1171490990/interrupts.o
                0x9d02e70c                USB_Handler

.text.USB_DMA_Handler
                0x9d02e73c       0x30
 .text.USB_DMA_Handler
                0x9d02e73c       0x30 build/default/production/_ext/1171490990/interrupts.o
                0x9d02e73c                USB_DMA_Handler

.text.DMA0_Handler
                0x9d02e76c       0x30
 .text.DMA0_Handler
                0x9d02e76c       0x30 build/default/production/_ext/1171490990/interrupts.o
                0x9d02e76c                DMA0_Handler

.text.DMA1_Handler
                0x9d02e79c       0x30
 .text.DMA1_Handler
                0x9d02e79c       0x30 build/default/production/_ext/1171490990/interrupts.o
                0x9d02e79c                DMA1_Handler

.text.SPI4_RX_Handler
                0x9d02e7cc       0x30
 .text.SPI4_RX_Handler
                0x9d02e7cc       0x30 build/default/production/_ext/1171490990/interrupts.o
                0x9d02e7cc                SPI4_RX_Handler

.text.SPI4_TX_Handler
                0x9d02e7fc       0x30
 .text.SPI4_TX_Handler
                0x9d02e7fc       0x30 build/default/production/_ext/1171490990/interrupts.o
                0x9d02e7fc                SPI4_TX_Handler

.text._general_exception_handler
                0x9d02e82c       0x30
 .text._general_exception_handler
                0x9d02e82c       0x30 build/default/production/_ext/1171490990/exceptions.o
                0x9d02e82c                _general_exception_handler

.text._bootstrap_exception_handler
                0x9d02e85c       0x30
 .text._bootstrap_exception_handler
                0x9d02e85c       0x30 build/default/production/_ext/1171490990/exceptions.o
                0x9d02e85c                _bootstrap_exception_handler

.text._cache_err_exception_handler
                0x9d02e88c       0x30
 .text._cache_err_exception_handler
                0x9d02e88c       0x30 build/default/production/_ext/1171490990/exceptions.o
                0x9d02e88c                _cache_err_exception_handler

.text._simple_tlb_refill_exception_handler
                0x9d02e8bc       0x30
 .text._simple_tlb_refill_exception_handler
                0x9d02e8bc       0x30 build/default/production/_ext/1171490990/exceptions.o
                0x9d02e8bc                _simple_tlb_refill_exception_handler

.text.lSYS_FS_Tasks
                0x9d02e8ec       0x30
 .text.lSYS_FS_Tasks
                0x9d02e8ec       0x30 build/default/production/_ext/1171490990/tasks.o

.rodata         0x9d02e91c       0x30
 .rodata        0x9d02e91c       0x30 build/default/production/_ext/404212886/queue.o

.text.lDRV_SDSPI_CheckWriteProtectStatus
                0x9d02e94c       0x2c
 .text.lDRV_SDSPI_CheckWriteProtectStatus
                0x9d02e94c       0x2c build/default/production/_ext/1100529066/drv_sdspi.o

.text.disk_status
                0x9d02e978       0x2c
 .text.disk_status
                0x9d02e978       0x2c build/default/production/_ext/565198302/diskio.o
                0x9d02e978                disk_status

.rodata.usbMasterDescriptor.usbMasterDescriptor
                0x9d02e9a4       0x2c
 .rodata.usbMasterDescriptor.usbMasterDescriptor
                0x9d02e9a4       0x2c build/default/production/_ext/1171490990/usb_device_init_data.o

.text.vTaskSuspendAll
                0x9d02e9d0       0x2c
 .text.vTaskSuspendAll
                0x9d02e9d0       0x2c build/default/production/_ext/404212886/FreeRTOS_tasks.o
                0x9d02e9d0                vTaskSuspendAll

.text.vListInitialiseItem
                0x9d02e9fc       0x2c
 .text.vListInitialiseItem
                0x9d02e9fc       0x2c build/default/production/_ext/404212886/list.o
                0x9d02e9fc                vListInitialiseItem

.text.main      0x9d02ea28       0x2c
 .text.main     0x9d02ea28       0x2c build/default/production/_ext/1360937237/main.o
                0x9d02ea28                main

.text.lDRV_SPI_TX_DMA_CallbackHandler
                0x9d02ea54       0x28
 .text.lDRV_SPI_TX_DMA_CallbackHandler
                0x9d02ea54       0x28 build/default/production/_ext/2070931557/drv_spi.o

.text.CORETIMER_FrequencyGet
                0x9d02ea7c       0x28
 .text.CORETIMER_FrequencyGet
                0x9d02ea7c       0x28 build/default/production/_ext/1249264884/plib_coretimer.o
                0x9d02ea7c                CORETIMER_FrequencyGet

.rodata.drvSPI0remapDataBits.drvSPI0remapDataBits
                0x9d02eaa4       0x28
 .rodata.drvSPI0remapDataBits.drvSPI0remapDataBits
                0x9d02eaa4       0x28 build/default/production/_ext/1171490990/initialization.o

.rodata.drvSPI0InitData.drvSPI0InitData
                0x9d02eacc       0x28
 .rodata.drvSPI0InitData.drvSPI0InitData
                0x9d02eacc       0x28 build/default/production/_ext/1171490990/initialization.o

.text.vTaskMissedYield
                0x9d02eaf4       0x28
 .text.vTaskMissedYield
                0x9d02eaf4       0x28 build/default/production/_ext/404212886/FreeRTOS_tasks.o
                0x9d02eaf4                vTaskMissedYield

.rodata.drvSDSPI0InitData.drvSDSPI0InitData
                0x9d02eb1c       0x24
 .rodata.drvSDSPI0InitData.drvSDSPI0InitData
                0x9d02eb1c       0x24 build/default/production/_ext/1171490990/initialization.o

.text.lAPP_FREERTOS_Tasks
                0x9d02eb40       0x24
 .text.lAPP_FREERTOS_Tasks
                0x9d02eb40       0x24 build/default/production/_ext/1171490990/tasks.o

.text.uxTaskGetNumberOfTasks
                0x9d02eb64       0x24
 .text.uxTaskGetNumberOfTasks
                0x9d02eb64       0x24 build/default/production/_ext/404212886/FreeRTOS_tasks.o
                0x9d02eb64                uxTaskGetNumberOfTasks

.rodata         0x9d02eb88       0x20
 .rodata        0x9d02eb88       0x20 build/default/production/_ext/1269487135/sys_fs_media_manager.o

.rodata.sysTimePlibAPI.sysTimePlibAPI
                0x9d02eba8       0x1c
 .rodata.sysTimePlibAPI.sysTimePlibAPI
                0x9d02eba8       0x1c build/default/production/_ext/1171490990/initialization.o

.text           0x9d02ebc4       0x18
 .text          0x9d02ebc4       0x18 c:/program files/microchip/xc32/v2.50/bin/bin/../../lib/gcc/pic32mx/4.8.3/../../../../pic32mx/lib/fpu64\libpic32.a(default-nmi-handler.o)
                0x9d02ebc4                _nmi_handler

.rodata.badchr.31067.badchr
                0x9d02ebdc       0x14
 .rodata.badchr.31067.badchr
                0x9d02ebdc       0x14 build/default/production/_ext/411819097/ff.o

.rodata.cdcFunctionDriver.cdcFunctionDriver
                0x9d02ebf0       0x14
 .rodata.cdcFunctionDriver.cdcFunctionDriver
                0x9d02ebf0       0x14 build/default/production/_ext/308758920/usb_device_cdc.o
                0x9d02ebf0                cdcFunctionDriver

.rodata.funcRegistrationTable.funcRegistrationTable
                0x9d02ec04       0x14
 .rodata.funcRegistrationTable.funcRegistrationTable
                0x9d02ec04       0x14 build/default/production/_ext/1171490990/usb_device_init_data.o

.rodata.usbDeviceDescriptor.usbDeviceDescriptor
                0x9d02ec18       0x14
 .rodata.usbDeviceDescriptor.usbDeviceDescriptor
                0x9d02ec18       0x14 build/default/production/_ext/1171490990/usb_device_init_data.o

.rodata.LfnOfs.LfnOfs
                0x9d02ec2c       0x10
 .rodata.LfnOfs.LfnOfs
                0x9d02ec2c       0x10 build/default/production/_ext/411819097/ff.o

.rodata.defopt.31106.defopt
                0x9d02ec3c       0x10
 .rodata.defopt.31106.defopt
                0x9d02ec3c       0x10 build/default/production/_ext/411819097/ff.o

.rodata.cst32.31105.cst32
                0x9d02ec4c       0x10
 .rodata.cst32.31105.cst32
                0x9d02ec4c       0x10 build/default/production/_ext/411819097/ff.o

.rodata.cst.31104.cst
                0x9d02ec5c       0x10
 .rodata.cst.31104.cst
                0x9d02ec5c       0x10 build/default/production/_ext/411819097/ff.o

.rodata.drvSPI0PlibAPI.drvSPI0PlibAPI
                0x9d02ec6c       0x10
 .rodata.drvSPI0PlibAPI.drvSPI0PlibAPI
                0x9d02ec6c       0x10 build/default/production/_ext/1171490990/initialization.o

.rodata.sysfsMountTable.sysfsMountTable
                0x9d02ec7c       0x10
 .rodata.sysfsMountTable.sysfsMountTable
                0x9d02ec7c       0x10 build/default/production/_ext/1171490990/initialization.o
                0x9d02ec7c                sysfsMountTable

.rodata.sd001.sd001
                0x9d02ec8c       0x10
 .rodata.sd001.sd001
                0x9d02ec8c       0x10 build/default/production/_ext/1171490990/usb_device_init_data.o

.rodata.sd002.sd002
                0x9d02ec9c       0x10
 .rodata.sd002.sd002
                0x9d02ec9c       0x10 build/default/production/_ext/1171490990/usb_device_init_data.o

.rodata.cdcInit0.cdcInit0
                0x9d02ecac        0xc
 .rodata.cdcInit0.cdcInit0
                0x9d02ecac        0xc build/default/production/_ext/1171490990/usb_device_init_data.o

.rodata.deviceQualifierDescriptor1.deviceQualifierDescriptor1
                0x9d02ecb8        0xc
 .rodata.deviceQualifierDescriptor1.deviceQualifierDescriptor1
                0x9d02ecb8        0xc build/default/production/_ext/1171490990/usb_device_init_data.o

.rodata.stringDescriptors.stringDescriptors
                0x9d02ecc4        0xc
 .rodata.stringDescriptors.stringDescriptors
                0x9d02ecc4        0xc build/default/production/_ext/1171490990/usb_device_init_data.o

.rodata.gPartitionTypeOffset.gPartitionTypeOffset
                0x9d02ecd0        0x8
 .rodata.gPartitionTypeOffset.gPartitionTypeOffset
                0x9d02ecd0        0x8 build/default/production/_ext/1269487135/sys_fs_media_manager.o

.rodata         0x9d02ecd8        0x8
 .rodata        0x9d02ecd8        0x8 build/default/production/_ext/1269487135/sys_fs.o

.rodata.drvSPI0remapClockPolarity.drvSPI0remapClockPolarity
                0x9d02ece0        0x8
 .rodata.drvSPI0remapClockPolarity.drvSPI0remapClockPolarity
                0x9d02ece0        0x8 build/default/production/_ext/1171490990/initialization.o

.rodata.drvSPI0remapClockPhase.drvSPI0remapClockPhase
                0x9d02ece8        0x8
 .rodata.drvSPI0remapClockPhase.drvSPI0remapClockPhase
                0x9d02ece8        0x8 build/default/production/_ext/1171490990/initialization.o

.rodata.sysFSInit.sysFSInit
                0x9d02ecf0        0x8
 .rodata.sysFSInit.sysFSInit
                0x9d02ecf0        0x8 build/default/production/_ext/1171490990/initialization.o

.rodata.sysTimeInitData.sysTimeInitData
                0x9d02ecf8        0x8
 .rodata.sysTimeInitData.sysTimeInitData
                0x9d02ecf8        0x8 build/default/production/_ext/1171490990/initialization.o

.text._on_reset
                0x9d02ed00        0x8
 .text._on_reset
                0x9d02ed00        0x8 c:/program files/microchip/xc32/v2.50/bin/bin/../../lib/gcc/pic32mx/4.8.3/../../../../pic32mx/lib/fpu64\libpic32.a(default-on-reset.o)
                0x9d02ed00                _on_reset

.text._on_bootstrap
                0x9d02ed08        0x8
 .text._on_bootstrap
                0x9d02ed08        0x8 c:/program files/microchip/xc32/v2.50/bin/bin/../../lib/gcc/pic32mx/4.8.3/../../../../pic32mx/lib/fpu64\libpic32.a(default-on-bootstrap.o)
                0x9d02ed08                _on_bootstrap

.rodata.highSpeedConfigDescSet.highSpeedConfigDescSet
                0x9d02ed10        0x4
 .rodata.highSpeedConfigDescSet.highSpeedConfigDescSet
                0x9d02ed10        0x4 build/default/production/_ext/1171490990/usb_device_init_data.o

.rodata.fullSpeedConfigDescSet.fullSpeedConfigDescSet
                0x9d02ed14        0x4
 .rodata.fullSpeedConfigDescSet.fullSpeedConfigDescSet
                0x9d02ed14        0x4 build/default/production/_ext/1171490990/usb_device_init_data.o

.rodata.sd000.sd000
                0x9d02ed18        0x4
 .rodata.sd000.sd000
                0x9d02ed18        0x4 build/default/production/_ext/1171490990/usb_device_init_data.o

.rodata.xISRStackTop.xISRStackTop
                0x9d02ed1c        0x4
 .rodata.xISRStackTop.xISRStackTop
                0x9d02ed1c        0x4 build/default/production/_ext/951553246/port.o
                0x9d02ed1c                xISRStackTop

.data.uxTopUsedPriority.uxTopUsedPriority
                0x9d02ed20        0x4
 .data.uxTopUsedPriority.uxTopUsedPriority
                0x9d02ed20        0x4 build/default/production/_ext/404212886/FreeRTOS_tasks.o
                0x9d02ed20                uxTopUsedPriority
